ARM GAS  C:\Users\Andrew\AppData\Local\Temp\ccM6WXyg.s 			page 1


   1              		.syntax unified
   2              		.cpu cortex-m3
   3              		.fpu softvfp
   4              		.eabi_attribute 20, 1
   5              		.eabi_attribute 21, 1
   6              		.eabi_attribute 23, 3
   7              		.eabi_attribute 24, 1
   8              		.eabi_attribute 25, 1
   9              		.eabi_attribute 26, 1
  10              		.eabi_attribute 30, 6
  11              		.eabi_attribute 34, 1
  12              		.eabi_attribute 18, 4
  13              		.thumb
  14              		.file	"8051_read.c"
  15              		.text
  16              	.Ltext0:
  17              		.cfi_sections	.debug_frame
  18              		.section	.rodata
  19              		.align	2
  20              	.LC0:
  21 0000 4C415354 		.ascii	"LAST:\000"
  21      3A00
  22 0006 0000     		.align	2
  23              	.LC1:
  24 0008 20484558 		.ascii	" HEX: \000"
  24      3A2000
  25 000f 00       		.align	2
  26              	.LC2:
  27 0010 43555252 		.ascii	"CURR:\000"
  27      3A00
  28 0016 0000     		.section	.text.read_Values,"ax",%progbits
  29              		.align	2
  30              		.global	read_Values
  31              		.thumb
  32              		.thumb_func
  33              		.type	read_Values, %function
  34              	read_Values:
  35              	.LFB63:
  36              		.file 1 ".\\8051_read.c"
   1:.\8051_read.c **** /* ========================================
   2:.\8051_read.c ****  *
   3:.\8051_read.c ****  * Copyright HUDING ENTERPRISES, 2016
   4:.\8051_read.c ****  * All Rights Reserved
   5:.\8051_read.c ****  * UNPUBLISHED, LICENSED SOFTWARE.
   6:.\8051_read.c ****  *
   7:.\8051_read.c ****  * CONFIDENTIAL AND PROPRIETARY INFORMATION
   8:.\8051_read.c ****  * WHICH IS THE PROPERTY OF Andrew Xia.
   9:.\8051_read.c ****  *
  10:.\8051_read.c ****  * ========================================
  11:.\8051_read.c **** */
  12:.\8051_read.c **** 
  13:.\8051_read.c **** //this file contains all relevant display structures and methods
  14:.\8051_read.c **** 
  15:.\8051_read.c **** #ifndef DEVICE_H
  16:.\8051_read.c **** #define DEVICE_H
  17:.\8051_read.c **** #include <project.h>
  18:.\8051_read.c **** 
ARM GAS  C:\Users\Andrew\AppData\Local\Temp\ccM6WXyg.s 			page 2


  19:.\8051_read.c **** #endif
  20:.\8051_read.c **** 
  21:.\8051_read.c **** uint8 read_Values(uint8 Values){
  37              		.loc 1 21 0
  38              		.cfi_startproc
  39              		@ args = 0, pretend = 0, frame = 16
  40              		@ frame_needed = 1, uses_anonymous_args = 0
  41 0000 80B5     		push	{r7, lr}
  42              		.cfi_def_cfa_offset 8
  43              		.cfi_offset 7, -8
  44              		.cfi_offset 14, -4
  45 0002 84B0     		sub	sp, sp, #16
  46              		.cfi_def_cfa_offset 24
  47 0004 00AF     		add	r7, sp, #0
  48              		.cfi_def_cfa_register 7
  49 0006 0346     		mov	r3, r0
  50 0008 FB71     		strb	r3, [r7, #7]
  22:.\8051_read.c ****     // this function reads the live value from 8255 output. 
  23:.\8051_read.c ****     // connected via databus on port 3
  24:.\8051_read.c ****     // and displays on the LCD
  25:.\8051_read.c ****     // this function assumes that LCD_Start() has already been run;
  26:.\8051_read.c ****     // And uint8 Values has been declared
  27:.\8051_read.c ****     LCD_ClearDisplay();
  51              		.loc 1 27 0
  52 000a 0120     		movs	r0, #1
  53 000c FFF7FEFF 		bl	LCD_WriteControl
  28:.\8051_read.c ****     LCD_Position(1,0); //move to bot row
  54              		.loc 1 28 0
  55 0010 0120     		movs	r0, #1
  56 0012 0021     		movs	r1, #0
  57 0014 FFF7FEFF 		bl	LCD_Position
  29:.\8051_read.c ****     LCD_PrintString("LAST:"); //first, we print last value
  58              		.loc 1 29 0
  59 0018 1848     		ldr	r0, .L4
  60 001a FFF7FEFF 		bl	LCD_PrintString
  30:.\8051_read.c ****     LCD_PutChar(Values); //print ascii value
  61              		.loc 1 30 0
  62 001e FB79     		ldrb	r3, [r7, #7]	@ zero_extendqisi2
  63 0020 1846     		mov	r0, r3
  64 0022 FFF7FEFF 		bl	LCD_PutChar
  31:.\8051_read.c ****     LCD_PrintString(" HEX: ");
  65              		.loc 1 31 0
  66 0026 1648     		ldr	r0, .L4+4
  67 0028 FFF7FEFF 		bl	LCD_PrintString
  32:.\8051_read.c ****     LCD_PrintNumber(Values); //print value I am getting
  68              		.loc 1 32 0
  69 002c FB79     		ldrb	r3, [r7, #7]	@ zero_extendqisi2
  70 002e 1846     		mov	r0, r3
  71 0030 FFF7FEFF 		bl	LCD_PrintU32Number
  33:.\8051_read.c ****     
  34:.\8051_read.c ****     uint8 current;
  35:.\8051_read.c ****     current = Pin3_Read(); //next, read a new value
  72              		.loc 1 35 0
  73 0034 FFF7FEFF 		bl	Pin3_Read
  74 0038 0346     		mov	r3, r0
  75 003a FB73     		strb	r3, [r7, #15]
  36:.\8051_read.c ****     LCD_Position(0,0); //move back to top row
ARM GAS  C:\Users\Andrew\AppData\Local\Temp\ccM6WXyg.s 			page 3


  76              		.loc 1 36 0
  77 003c 0020     		movs	r0, #0
  78 003e 0021     		movs	r1, #0
  79 0040 FFF7FEFF 		bl	LCD_Position
  37:.\8051_read.c ****     LCD_PrintString("CURR:");
  80              		.loc 1 37 0
  81 0044 0F48     		ldr	r0, .L4+8
  82 0046 FFF7FEFF 		bl	LCD_PrintString
  38:.\8051_read.c ****     LCD_PutChar(current); //print ascii value
  83              		.loc 1 38 0
  84 004a FB7B     		ldrb	r3, [r7, #15]	@ zero_extendqisi2
  85 004c 1846     		mov	r0, r3
  86 004e FFF7FEFF 		bl	LCD_PutChar
  39:.\8051_read.c ****     LCD_PrintString(" HEX: ");
  87              		.loc 1 39 0
  88 0052 0B48     		ldr	r0, .L4+4
  89 0054 FFF7FEFF 		bl	LCD_PrintString
  40:.\8051_read.c ****     LCD_PrintNumber(current); //print value I am getting
  90              		.loc 1 40 0
  91 0058 FB7B     		ldrb	r3, [r7, #15]	@ zero_extendqisi2
  92 005a 1846     		mov	r0, r3
  93 005c FFF7FEFF 		bl	LCD_PrintU32Number
  41:.\8051_read.c ****     
  42:.\8051_read.c ****     waiter(5);
  94              		.loc 1 42 0
  95 0060 0520     		movs	r0, #5
  96 0062 FFF7FEFF 		bl	waiter
  43:.\8051_read.c ****     if (current == 255) return Values; // do not return new value
  97              		.loc 1 43 0
  98 0066 FB7B     		ldrb	r3, [r7, #15]	@ zero_extendqisi2
  99 0068 FF2B     		cmp	r3, #255
 100 006a 01D1     		bne	.L2
 101              		.loc 1 43 0 is_stmt 0 discriminator 1
 102 006c FB79     		ldrb	r3, [r7, #7]	@ zero_extendqisi2
 103 006e 00E0     		b	.L3
 104              	.L2:
  44:.\8051_read.c ****     else return current;
 105              		.loc 1 44 0 is_stmt 1
 106 0070 FB7B     		ldrb	r3, [r7, #15]	@ zero_extendqisi2
 107              	.L3:
  45:.\8051_read.c **** }
 108              		.loc 1 45 0
 109 0072 1846     		mov	r0, r3
 110 0074 1037     		adds	r7, r7, #16
 111              		.cfi_def_cfa_offset 8
 112 0076 BD46     		mov	sp, r7
 113              		.cfi_def_cfa_register 13
 114              		@ sp needed
 115 0078 80BD     		pop	{r7, pc}
 116              	.L5:
 117 007a 00BF     		.align	2
 118              	.L4:
 119 007c 00000000 		.word	.LC0
 120 0080 08000000 		.word	.LC1
 121 0084 10000000 		.word	.LC2
 122              		.cfi_endproc
 123              	.LFE63:
ARM GAS  C:\Users\Andrew\AppData\Local\Temp\ccM6WXyg.s 			page 4


 124              		.size	read_Values, .-read_Values
 125              		.section	.text.read_from_8255,"ax",%progbits
 126              		.align	2
 127              		.global	read_from_8255
 128              		.thumb
 129              		.thumb_func
 130              		.type	read_from_8255, %function
 131              	read_from_8255:
 132              	.LFB64:
  46:.\8051_read.c **** 
  47:.\8051_read.c **** uint8 read_from_8255(uint8 Values){
 133              		.loc 1 47 0
 134              		.cfi_startproc
 135              		@ args = 0, pretend = 0, frame = 16
 136              		@ frame_needed = 1, uses_anonymous_args = 0
 137 0000 80B5     		push	{r7, lr}
 138              		.cfi_def_cfa_offset 8
 139              		.cfi_offset 7, -8
 140              		.cfi_offset 14, -4
 141 0002 84B0     		sub	sp, sp, #16
 142              		.cfi_def_cfa_offset 24
 143 0004 00AF     		add	r7, sp, #0
 144              		.cfi_def_cfa_register 7
 145 0006 0346     		mov	r3, r0
 146 0008 FB71     		strb	r3, [r7, #7]
  48:.\8051_read.c ****     // this function reads the live value from 8255 output. 
  49:.\8051_read.c ****     // connected via databus on port 3
  50:.\8051_read.c ****     // and displays on the LCD
  51:.\8051_read.c ****     // this function assumes that LCD_Start() has already been run;
  52:.\8051_read.c ****     // And uint8 Values has been declared
  53:.\8051_read.c ****     LCD_ClearDisplay();
 147              		.loc 1 53 0
 148 000a 0120     		movs	r0, #1
 149 000c FFF7FEFF 		bl	LCD_WriteControl
  54:.\8051_read.c ****     LCD_Position(1,0); //move to bot row
 150              		.loc 1 54 0
 151 0010 0120     		movs	r0, #1
 152 0012 0021     		movs	r1, #0
 153 0014 FFF7FEFF 		bl	LCD_Position
  55:.\8051_read.c ****     LCD_PrintString("LAST:"); //first, we print last value
 154              		.loc 1 55 0
 155 0018 1848     		ldr	r0, .L9
 156 001a FFF7FEFF 		bl	LCD_PrintString
  56:.\8051_read.c ****     LCD_PutChar(Values); //print ascii value
 157              		.loc 1 56 0
 158 001e FB79     		ldrb	r3, [r7, #7]	@ zero_extendqisi2
 159 0020 1846     		mov	r0, r3
 160 0022 FFF7FEFF 		bl	LCD_PutChar
  57:.\8051_read.c ****     LCD_PrintString(" HEX: ");
 161              		.loc 1 57 0
 162 0026 1648     		ldr	r0, .L9+4
 163 0028 FFF7FEFF 		bl	LCD_PrintString
  58:.\8051_read.c ****     LCD_PrintNumber(Values); //print value I am getting
 164              		.loc 1 58 0
 165 002c FB79     		ldrb	r3, [r7, #7]	@ zero_extendqisi2
 166 002e 1846     		mov	r0, r3
 167 0030 FFF7FEFF 		bl	LCD_PrintU32Number
ARM GAS  C:\Users\Andrew\AppData\Local\Temp\ccM6WXyg.s 			page 5


  59:.\8051_read.c ****     
  60:.\8051_read.c ****     uint8 current;
  61:.\8051_read.c ****     current = Pin3_Read(); //next, read a new value
 168              		.loc 1 61 0
 169 0034 FFF7FEFF 		bl	Pin3_Read
 170 0038 0346     		mov	r3, r0
 171 003a FB73     		strb	r3, [r7, #15]
  62:.\8051_read.c ****     LCD_Position(0,0); //move back to top row
 172              		.loc 1 62 0
 173 003c 0020     		movs	r0, #0
 174 003e 0021     		movs	r1, #0
 175 0040 FFF7FEFF 		bl	LCD_Position
  63:.\8051_read.c ****     LCD_PrintString("CURR:");
 176              		.loc 1 63 0
 177 0044 0F48     		ldr	r0, .L9+8
 178 0046 FFF7FEFF 		bl	LCD_PrintString
  64:.\8051_read.c ****     LCD_PutChar(current); //print ascii value
 179              		.loc 1 64 0
 180 004a FB7B     		ldrb	r3, [r7, #15]	@ zero_extendqisi2
 181 004c 1846     		mov	r0, r3
 182 004e FFF7FEFF 		bl	LCD_PutChar
  65:.\8051_read.c ****     LCD_PrintString(" HEX: ");
 183              		.loc 1 65 0
 184 0052 0B48     		ldr	r0, .L9+4
 185 0054 FFF7FEFF 		bl	LCD_PrintString
  66:.\8051_read.c ****     LCD_PrintNumber(current); //print value I am getting
 186              		.loc 1 66 0
 187 0058 FB7B     		ldrb	r3, [r7, #15]	@ zero_extendqisi2
 188 005a 1846     		mov	r0, r3
 189 005c FFF7FEFF 		bl	LCD_PrintU32Number
  67:.\8051_read.c ****     
  68:.\8051_read.c ****     waiter(5);
 190              		.loc 1 68 0
 191 0060 0520     		movs	r0, #5
 192 0062 FFF7FEFF 		bl	waiter
  69:.\8051_read.c ****     if (current == 255) return Values; // do not return new value
 193              		.loc 1 69 0
 194 0066 FB7B     		ldrb	r3, [r7, #15]	@ zero_extendqisi2
 195 0068 FF2B     		cmp	r3, #255
 196 006a 01D1     		bne	.L7
 197              		.loc 1 69 0 is_stmt 0 discriminator 1
 198 006c FB79     		ldrb	r3, [r7, #7]	@ zero_extendqisi2
 199 006e 00E0     		b	.L8
 200              	.L7:
  70:.\8051_read.c ****     else return current; // return current nonzero value
 201              		.loc 1 70 0 is_stmt 1
 202 0070 FB7B     		ldrb	r3, [r7, #15]	@ zero_extendqisi2
 203              	.L8:
  71:.\8051_read.c **** }...
 204              		.loc 1 71 0
 205 0072 1846     		mov	r0, r3
 206 0074 1037     		adds	r7, r7, #16
 207              		.cfi_def_cfa_offset 8
 208 0076 BD46     		mov	sp, r7
 209              		.cfi_def_cfa_register 13
 210              		@ sp needed
 211 0078 80BD     		pop	{r7, pc}
ARM GAS  C:\Users\Andrew\AppData\Local\Temp\ccM6WXyg.s 			page 6


 212              	.L10:
 213 007a 00BF     		.align	2
 214              	.L9:
 215 007c 00000000 		.word	.LC0
 216 0080 08000000 		.word	.LC1
 217 0084 10000000 		.word	.LC2
 218              		.cfi_endproc
 219              	.LFE64:
 220              		.size	read_from_8255, .-read_from_8255
 221              		.text
 222              	.Letext0:
 223              		.file 2 "c:\\program files (x86)\\cypress\\psoc creator\\3.3\\psoc creator\\import\\gnu\\arm\\4.9.
 224              		.file 3 "c:\\program files (x86)\\cypress\\psoc creator\\3.3\\psoc creator\\import\\gnu\\arm\\4.9.
 225              		.file 4 "Generated_Source\\PSoC5/cytypes.h"
 226              		.file 5 "Generated_Source\\PSoC5/core_cm3.h"