ARM GAS  C:\Users\Andrew\AppData\Local\Temp\cczttxnE.s 			page 1


   1              		.syntax unified
   2              		.cpu cortex-m3
   3              		.fpu softvfp
   4              		.eabi_attribute 20, 1
   5              		.eabi_attribute 21, 1
   6              		.eabi_attribute 23, 3
   7              		.eabi_attribute 24, 1
   8              		.eabi_attribute 25, 1
   9              		.eabi_attribute 26, 1
  10              		.eabi_attribute 30, 6
  11              		.eabi_attribute 34, 1
  12              		.eabi_attribute 18, 4
  13              		.thumb
  14              		.file	"cyfitter_cfg.c"
  15              		.text
  16              	.Ltext0:
  17              		.cfi_sections	.debug_frame
  18              		.section	.text.CYMEMZERO,"ax",%progbits
  19              		.align	2
  20              		.thumb
  21              		.thumb_func
  22              		.type	CYMEMZERO, %function
  23              	CYMEMZERO:
  24              	.LFB0:
  25              		.file 1 ".\\Generated_Source\\PSoC5\\cyfitter_cfg.c"
   1:.\Generated_Source\PSoC5/cyfitter_cfg.c **** /*******************************************************************************
   2:.\Generated_Source\PSoC5/cyfitter_cfg.c **** * File Name: cyfitter_cfg.c
   3:.\Generated_Source\PSoC5/cyfitter_cfg.c **** * 
   4:.\Generated_Source\PSoC5/cyfitter_cfg.c **** * PSoC Creator  3.3 CP2
   5:.\Generated_Source\PSoC5/cyfitter_cfg.c **** *
   6:.\Generated_Source\PSoC5/cyfitter_cfg.c **** * Description:
   7:.\Generated_Source\PSoC5/cyfitter_cfg.c **** * This file contains device initialization code.
   8:.\Generated_Source\PSoC5/cyfitter_cfg.c **** * Except for the user defined sections in CyClockStartupError(), this file should not be modified.
   9:.\Generated_Source\PSoC5/cyfitter_cfg.c **** * This file is automatically generated by PSoC Creator.
  10:.\Generated_Source\PSoC5/cyfitter_cfg.c **** *
  11:.\Generated_Source\PSoC5/cyfitter_cfg.c **** ********************************************************************************
  12:.\Generated_Source\PSoC5/cyfitter_cfg.c **** * Copyright (c) 2007-2015 Cypress Semiconductor.  All rights reserved.
  13:.\Generated_Source\PSoC5/cyfitter_cfg.c **** * You may use this file only in accordance with the license, terms, conditions, 
  14:.\Generated_Source\PSoC5/cyfitter_cfg.c **** * disclaimers, and limitations in the end user license agreement accompanying 
  15:.\Generated_Source\PSoC5/cyfitter_cfg.c **** * the software package with which this file was provided.
  16:.\Generated_Source\PSoC5/cyfitter_cfg.c **** ********************************************************************************/
  17:.\Generated_Source\PSoC5/cyfitter_cfg.c **** 
  18:.\Generated_Source\PSoC5/cyfitter_cfg.c **** #include <string.h>
  19:.\Generated_Source\PSoC5/cyfitter_cfg.c **** #include "cytypes.h"
  20:.\Generated_Source\PSoC5/cyfitter_cfg.c **** #include "cydevice_trm.h"
  21:.\Generated_Source\PSoC5/cyfitter_cfg.c **** #include "cyfitter.h"
  22:.\Generated_Source\PSoC5/cyfitter_cfg.c **** #include "CyLib.h"
  23:.\Generated_Source\PSoC5/cyfitter_cfg.c **** #include "cyfitter_cfg.h"
  24:.\Generated_Source\PSoC5/cyfitter_cfg.c **** 
  25:.\Generated_Source\PSoC5/cyfitter_cfg.c **** #define CY_NEED_CYCLOCKSTARTUPERROR 1
  26:.\Generated_Source\PSoC5/cyfitter_cfg.c **** 
  27:.\Generated_Source\PSoC5/cyfitter_cfg.c **** 
  28:.\Generated_Source\PSoC5/cyfitter_cfg.c **** #if defined(__GNUC__) || defined(__ARMCC_VERSION)
  29:.\Generated_Source\PSoC5/cyfitter_cfg.c ****     #define CYPACKED 
  30:.\Generated_Source\PSoC5/cyfitter_cfg.c ****     #define CYPACKED_ATTR __attribute__ ((packed))
  31:.\Generated_Source\PSoC5/cyfitter_cfg.c ****     #define CYALIGNED __attribute__ ((aligned))
  32:.\Generated_Source\PSoC5/cyfitter_cfg.c ****     #define CY_CFG_UNUSED __attribute__ ((unused))
ARM GAS  C:\Users\Andrew\AppData\Local\Temp\cczttxnE.s 			page 2


  33:.\Generated_Source\PSoC5/cyfitter_cfg.c ****     #ifndef CY_CFG_SECTION
  34:.\Generated_Source\PSoC5/cyfitter_cfg.c ****         #define CY_CFG_SECTION __attribute__ ((section(".psocinit")))
  35:.\Generated_Source\PSoC5/cyfitter_cfg.c ****     #endif
  36:.\Generated_Source\PSoC5/cyfitter_cfg.c ****     
  37:.\Generated_Source\PSoC5/cyfitter_cfg.c ****     #if defined(__ARMCC_VERSION)
  38:.\Generated_Source\PSoC5/cyfitter_cfg.c ****         #define CY_CFG_MEMORY_BARRIER() __memory_changed()
  39:.\Generated_Source\PSoC5/cyfitter_cfg.c ****     #else
  40:.\Generated_Source\PSoC5/cyfitter_cfg.c ****         #define CY_CFG_MEMORY_BARRIER() __sync_synchronize()
  41:.\Generated_Source\PSoC5/cyfitter_cfg.c ****     #endif
  42:.\Generated_Source\PSoC5/cyfitter_cfg.c ****     
  43:.\Generated_Source\PSoC5/cyfitter_cfg.c **** #elif defined(__ICCARM__)
  44:.\Generated_Source\PSoC5/cyfitter_cfg.c ****     #include <intrinsics.h>
  45:.\Generated_Source\PSoC5/cyfitter_cfg.c **** 
  46:.\Generated_Source\PSoC5/cyfitter_cfg.c ****     #define CYPACKED __packed
  47:.\Generated_Source\PSoC5/cyfitter_cfg.c ****     #define CYPACKED_ATTR 
  48:.\Generated_Source\PSoC5/cyfitter_cfg.c ****     #define CYALIGNED _Pragma("data_alignment=4")
  49:.\Generated_Source\PSoC5/cyfitter_cfg.c ****     #define CY_CFG_UNUSED _Pragma("diag_suppress=Pe177")
  50:.\Generated_Source\PSoC5/cyfitter_cfg.c ****     #define CY_CFG_SECTION _Pragma("location=\".psocinit\"")
  51:.\Generated_Source\PSoC5/cyfitter_cfg.c ****     
  52:.\Generated_Source\PSoC5/cyfitter_cfg.c ****     #define CY_CFG_MEMORY_BARRIER() __DMB()
  53:.\Generated_Source\PSoC5/cyfitter_cfg.c ****     
  54:.\Generated_Source\PSoC5/cyfitter_cfg.c **** #else
  55:.\Generated_Source\PSoC5/cyfitter_cfg.c ****     #error Unsupported toolchain
  56:.\Generated_Source\PSoC5/cyfitter_cfg.c **** #endif
  57:.\Generated_Source\PSoC5/cyfitter_cfg.c **** 
  58:.\Generated_Source\PSoC5/cyfitter_cfg.c **** 
  59:.\Generated_Source\PSoC5/cyfitter_cfg.c **** CY_CFG_UNUSED
  60:.\Generated_Source\PSoC5/cyfitter_cfg.c **** static void CYMEMZERO(void *s, size_t n);
  61:.\Generated_Source\PSoC5/cyfitter_cfg.c **** CY_CFG_UNUSED
  62:.\Generated_Source\PSoC5/cyfitter_cfg.c **** static void CYMEMZERO(void *s, size_t n)
  63:.\Generated_Source\PSoC5/cyfitter_cfg.c **** {
  26              		.loc 1 63 0
  27              		.cfi_startproc
  28              		@ args = 0, pretend = 0, frame = 8
  29              		@ frame_needed = 1, uses_anonymous_args = 0
  30 0000 80B5     		push	{r7, lr}
  31              		.cfi_def_cfa_offset 8
  32              		.cfi_offset 7, -8
  33              		.cfi_offset 14, -4
  34 0002 82B0     		sub	sp, sp, #8
  35              		.cfi_def_cfa_offset 16
  36 0004 00AF     		add	r7, sp, #0
  37              		.cfi_def_cfa_register 7
  38 0006 7860     		str	r0, [r7, #4]
  39 0008 3960     		str	r1, [r7]
  64:.\Generated_Source\PSoC5/cyfitter_cfg.c **** 	(void)memset(s, 0, n);
  40              		.loc 1 64 0
  41 000a 7868     		ldr	r0, [r7, #4]
  42 000c 0021     		movs	r1, #0
  43 000e 3A68     		ldr	r2, [r7]
  44 0010 FFF7FEFF 		bl	memset
  65:.\Generated_Source\PSoC5/cyfitter_cfg.c **** }
  45              		.loc 1 65 0
  46 0014 0837     		adds	r7, r7, #8
  47              		.cfi_def_cfa_offset 8
  48 0016 BD46     		mov	sp, r7
  49              		.cfi_def_cfa_register 13
ARM GAS  C:\Users\Andrew\AppData\Local\Temp\cczttxnE.s 			page 3


  50              		@ sp needed
  51 0018 80BD     		pop	{r7, pc}
  52              		.cfi_endproc
  53              	.LFE0:
  54              		.size	CYMEMZERO, .-CYMEMZERO
  55 001a 00BF     		.section	.text.CYCONFIGCPY,"ax",%progbits
  56              		.align	2
  57              		.thumb
  58              		.thumb_func
  59              		.type	CYCONFIGCPY, %function
  60              	CYCONFIGCPY:
  61              	.LFB1:
  66:.\Generated_Source\PSoC5/cyfitter_cfg.c **** CY_CFG_UNUSED
  67:.\Generated_Source\PSoC5/cyfitter_cfg.c **** static void CYCONFIGCPY(void *dest, const void *src, size_t n);
  68:.\Generated_Source\PSoC5/cyfitter_cfg.c **** CY_CFG_UNUSED
  69:.\Generated_Source\PSoC5/cyfitter_cfg.c **** static void CYCONFIGCPY(void *dest, const void *src, size_t n)
  70:.\Generated_Source\PSoC5/cyfitter_cfg.c **** {
  62              		.loc 1 70 0
  63              		.cfi_startproc
  64              		@ args = 0, pretend = 0, frame = 16
  65              		@ frame_needed = 1, uses_anonymous_args = 0
  66 0000 80B5     		push	{r7, lr}
  67              		.cfi_def_cfa_offset 8
  68              		.cfi_offset 7, -8
  69              		.cfi_offset 14, -4
  70 0002 84B0     		sub	sp, sp, #16
  71              		.cfi_def_cfa_offset 24
  72 0004 00AF     		add	r7, sp, #0
  73              		.cfi_def_cfa_register 7
  74 0006 F860     		str	r0, [r7, #12]
  75 0008 B960     		str	r1, [r7, #8]
  76 000a 7A60     		str	r2, [r7, #4]
  71:.\Generated_Source\PSoC5/cyfitter_cfg.c **** 	(void)memcpy(dest, src, n);
  77              		.loc 1 71 0
  78 000c F868     		ldr	r0, [r7, #12]
  79 000e B968     		ldr	r1, [r7, #8]
  80 0010 7A68     		ldr	r2, [r7, #4]
  81 0012 FFF7FEFF 		bl	memcpy
  72:.\Generated_Source\PSoC5/cyfitter_cfg.c **** }
  82              		.loc 1 72 0
  83 0016 1037     		adds	r7, r7, #16
  84              		.cfi_def_cfa_offset 8
  85 0018 BD46     		mov	sp, r7
  86              		.cfi_def_cfa_register 13
  87              		@ sp needed
  88 001a 80BD     		pop	{r7, pc}
  89              		.cfi_endproc
  90              	.LFE1:
  91              		.size	CYCONFIGCPY, .-CYCONFIGCPY
  92              		.section	.text.CYCONFIGCPYCODE,"ax",%progbits
  93              		.align	2
  94              		.thumb
  95              		.thumb_func
  96              		.type	CYCONFIGCPYCODE, %function
  97              	CYCONFIGCPYCODE:
  98              	.LFB2:
  73:.\Generated_Source\PSoC5/cyfitter_cfg.c **** CY_CFG_UNUSED
ARM GAS  C:\Users\Andrew\AppData\Local\Temp\cczttxnE.s 			page 4


  74:.\Generated_Source\PSoC5/cyfitter_cfg.c **** static void CYCONFIGCPYCODE(void *dest, const void *src, size_t n);
  75:.\Generated_Source\PSoC5/cyfitter_cfg.c **** CY_CFG_UNUSED
  76:.\Generated_Source\PSoC5/cyfitter_cfg.c **** static void CYCONFIGCPYCODE(void *dest, const void *src, size_t n)
  77:.\Generated_Source\PSoC5/cyfitter_cfg.c **** {
  99              		.loc 1 77 0
 100              		.cfi_startproc
 101              		@ args = 0, pretend = 0, frame = 16
 102              		@ frame_needed = 1, uses_anonymous_args = 0
 103 0000 80B5     		push	{r7, lr}
 104              		.cfi_def_cfa_offset 8
 105              		.cfi_offset 7, -8
 106              		.cfi_offset 14, -4
 107 0002 84B0     		sub	sp, sp, #16
 108              		.cfi_def_cfa_offset 24
 109 0004 00AF     		add	r7, sp, #0
 110              		.cfi_def_cfa_register 7
 111 0006 F860     		str	r0, [r7, #12]
 112 0008 B960     		str	r1, [r7, #8]
 113 000a 7A60     		str	r2, [r7, #4]
  78:.\Generated_Source\PSoC5/cyfitter_cfg.c **** 	(void)memcpy(dest, src, n);
 114              		.loc 1 78 0
 115 000c F868     		ldr	r0, [r7, #12]
 116 000e B968     		ldr	r1, [r7, #8]
 117 0010 7A68     		ldr	r2, [r7, #4]
 118 0012 FFF7FEFF 		bl	memcpy
  79:.\Generated_Source\PSoC5/cyfitter_cfg.c **** }
 119              		.loc 1 79 0
 120 0016 1037     		adds	r7, r7, #16
 121              		.cfi_def_cfa_offset 8
 122 0018 BD46     		mov	sp, r7
 123              		.cfi_def_cfa_register 13
 124              		@ sp needed
 125 001a 80BD     		pop	{r7, pc}
 126              		.cfi_endproc
 127              	.LFE2:
 128              		.size	CYCONFIGCPYCODE, .-CYCONFIGCPYCODE
 129              		.section	.text.CyClockStartupError,"ax",%progbits
 130              		.align	2
 131              		.thumb
 132              		.thumb_func
 133              		.type	CyClockStartupError, %function
 134              	CyClockStartupError:
 135              	.LFB3:
  80:.\Generated_Source\PSoC5/cyfitter_cfg.c **** 
  81:.\Generated_Source\PSoC5/cyfitter_cfg.c **** 
  82:.\Generated_Source\PSoC5/cyfitter_cfg.c **** 
  83:.\Generated_Source\PSoC5/cyfitter_cfg.c **** /* Clock startup error codes                                                   */
  84:.\Generated_Source\PSoC5/cyfitter_cfg.c **** #define CYCLOCKSTART_NO_ERROR    0u
  85:.\Generated_Source\PSoC5/cyfitter_cfg.c **** #define CYCLOCKSTART_XTAL_ERROR  1u
  86:.\Generated_Source\PSoC5/cyfitter_cfg.c **** #define CYCLOCKSTART_32KHZ_ERROR 2u
  87:.\Generated_Source\PSoC5/cyfitter_cfg.c **** #define CYCLOCKSTART_PLL_ERROR   3u
  88:.\Generated_Source\PSoC5/cyfitter_cfg.c **** 
  89:.\Generated_Source\PSoC5/cyfitter_cfg.c **** #ifdef CY_NEED_CYCLOCKSTARTUPERROR
  90:.\Generated_Source\PSoC5/cyfitter_cfg.c **** /*******************************************************************************
  91:.\Generated_Source\PSoC5/cyfitter_cfg.c **** * Function Name: CyClockStartupError
  92:.\Generated_Source\PSoC5/cyfitter_cfg.c **** ********************************************************************************
  93:.\Generated_Source\PSoC5/cyfitter_cfg.c **** * Summary:
ARM GAS  C:\Users\Andrew\AppData\Local\Temp\cczttxnE.s 			page 5


  94:.\Generated_Source\PSoC5/cyfitter_cfg.c **** *  If an error is encountered during clock configuration (crystal startup error,
  95:.\Generated_Source\PSoC5/cyfitter_cfg.c **** *  PLL lock error, etc.), the system will end up here.  Unless reimplemented by
  96:.\Generated_Source\PSoC5/cyfitter_cfg.c **** *  the customer, this function will stop in an infinite loop.
  97:.\Generated_Source\PSoC5/cyfitter_cfg.c **** *
  98:.\Generated_Source\PSoC5/cyfitter_cfg.c **** * Parameters:
  99:.\Generated_Source\PSoC5/cyfitter_cfg.c **** *   void
 100:.\Generated_Source\PSoC5/cyfitter_cfg.c **** *
 101:.\Generated_Source\PSoC5/cyfitter_cfg.c **** * Return:
 102:.\Generated_Source\PSoC5/cyfitter_cfg.c **** *   void
 103:.\Generated_Source\PSoC5/cyfitter_cfg.c **** *
 104:.\Generated_Source\PSoC5/cyfitter_cfg.c **** *******************************************************************************/
 105:.\Generated_Source\PSoC5/cyfitter_cfg.c **** CY_CFG_UNUSED
 106:.\Generated_Source\PSoC5/cyfitter_cfg.c **** static void CyClockStartupError(uint8 errorCode);
 107:.\Generated_Source\PSoC5/cyfitter_cfg.c **** CY_CFG_UNUSED
 108:.\Generated_Source\PSoC5/cyfitter_cfg.c **** static void CyClockStartupError(uint8 errorCode)
 109:.\Generated_Source\PSoC5/cyfitter_cfg.c **** {
 136              		.loc 1 109 0
 137              		.cfi_startproc
 138              		@ args = 0, pretend = 0, frame = 8
 139              		@ frame_needed = 1, uses_anonymous_args = 0
 140              		@ link register save eliminated.
 141 0000 80B4     		push	{r7}
 142              		.cfi_def_cfa_offset 4
 143              		.cfi_offset 7, -4
 144 0002 83B0     		sub	sp, sp, #12
 145              		.cfi_def_cfa_offset 16
 146 0004 00AF     		add	r7, sp, #0
 147              		.cfi_def_cfa_register 7
 148 0006 0346     		mov	r3, r0
 149 0008 FB71     		strb	r3, [r7, #7]
 150              	.L5:
 110:.\Generated_Source\PSoC5/cyfitter_cfg.c ****     /* To remove the compiler warning if errorCode not used.                */
 111:.\Generated_Source\PSoC5/cyfitter_cfg.c ****     errorCode = errorCode;
 112:.\Generated_Source\PSoC5/cyfitter_cfg.c **** 
 113:.\Generated_Source\PSoC5/cyfitter_cfg.c ****     /* `#START CyClockStartupError` */
 114:.\Generated_Source\PSoC5/cyfitter_cfg.c **** 
 115:.\Generated_Source\PSoC5/cyfitter_cfg.c ****     /* If we have a clock startup error (bad MHz crystal, PLL lock, etc)    */
 116:.\Generated_Source\PSoC5/cyfitter_cfg.c ****     /* we will end up here to allow the customer to implement something to  */
 117:.\Generated_Source\PSoC5/cyfitter_cfg.c ****     /* deal with the clock condition.                                       */
 118:.\Generated_Source\PSoC5/cyfitter_cfg.c **** 
 119:.\Generated_Source\PSoC5/cyfitter_cfg.c ****     /* `#END` */
 120:.\Generated_Source\PSoC5/cyfitter_cfg.c **** 
 121:.\Generated_Source\PSoC5/cyfitter_cfg.c ****     /* If nothing else, stop here since the clocks have not started         */
 122:.\Generated_Source\PSoC5/cyfitter_cfg.c ****     /* correctly.                                                           */
 123:.\Generated_Source\PSoC5/cyfitter_cfg.c ****     while(1) {}
 151              		.loc 1 123 0 discriminator 1
 152 000a FEE7     		b	.L5
 153              		.cfi_endproc
 154              	.LFE3:
 155              		.size	CyClockStartupError, .-CyClockStartupError
 156              		.section	.text.cfg_write_bytes32,"ax",%progbits
 157              		.align	2
 158              		.thumb
 159              		.thumb_func
 160              		.type	cfg_write_bytes32, %function
 161              	cfg_write_bytes32:
 162              	.LFB4:
ARM GAS  C:\Users\Andrew\AppData\Local\Temp\cczttxnE.s 			page 6


 124:.\Generated_Source\PSoC5/cyfitter_cfg.c **** }
 125:.\Generated_Source\PSoC5/cyfitter_cfg.c **** #endif
 126:.\Generated_Source\PSoC5/cyfitter_cfg.c **** 
 127:.\Generated_Source\PSoC5/cyfitter_cfg.c **** #define CY_CFG_BASE_ADDR_COUNT 17u
 128:.\Generated_Source\PSoC5/cyfitter_cfg.c **** CYPACKED typedef struct
 129:.\Generated_Source\PSoC5/cyfitter_cfg.c **** {
 130:.\Generated_Source\PSoC5/cyfitter_cfg.c **** 	uint8 offset;
 131:.\Generated_Source\PSoC5/cyfitter_cfg.c **** 	uint8 value;
 132:.\Generated_Source\PSoC5/cyfitter_cfg.c **** } CYPACKED_ATTR cy_cfg_addrvalue_t;
 133:.\Generated_Source\PSoC5/cyfitter_cfg.c **** 
 134:.\Generated_Source\PSoC5/cyfitter_cfg.c **** #define cy_cfg_addr_table ((const uint32 CYFAR *)0x48000000u)
 135:.\Generated_Source\PSoC5/cyfitter_cfg.c **** #define cy_cfg_data_table ((const cy_cfg_addrvalue_t CYFAR *)0x48000044u)
 136:.\Generated_Source\PSoC5/cyfitter_cfg.c **** 
 137:.\Generated_Source\PSoC5/cyfitter_cfg.c **** /* UDB_0_4_1_CONFIG Address: CYDEV_UCFG_B0_P6_U0_BASE Size (bytes): 128 */
 138:.\Generated_Source\PSoC5/cyfitter_cfg.c **** #define BS_UDB_0_4_1_CONFIG_VAL ((const uint8 CYFAR *)0x480002A8u)
 139:.\Generated_Source\PSoC5/cyfitter_cfg.c **** 
 140:.\Generated_Source\PSoC5/cyfitter_cfg.c **** /* IOPINS0_0 Address: CYREG_PRT0_DM0 Size (bytes): 8 */
 141:.\Generated_Source\PSoC5/cyfitter_cfg.c **** #define BS_IOPINS0_0_VAL ((const uint8 CYFAR *)0x48000328u)
 142:.\Generated_Source\PSoC5/cyfitter_cfg.c **** 
 143:.\Generated_Source\PSoC5/cyfitter_cfg.c **** /* IOPINS0_7 Address: CYREG_PRT12_DM0 Size (bytes): 8 */
 144:.\Generated_Source\PSoC5/cyfitter_cfg.c **** #define BS_IOPINS0_7_VAL ((const uint8 CYFAR *)0x48000330u)
 145:.\Generated_Source\PSoC5/cyfitter_cfg.c **** 
 146:.\Generated_Source\PSoC5/cyfitter_cfg.c **** /* IOPINS0_2 Address: CYREG_PRT2_DM0 Size (bytes): 8 */
 147:.\Generated_Source\PSoC5/cyfitter_cfg.c **** #define BS_IOPINS0_2_VAL ((const uint8 CYFAR *)0x48000338u)
 148:.\Generated_Source\PSoC5/cyfitter_cfg.c **** 
 149:.\Generated_Source\PSoC5/cyfitter_cfg.c **** /* IOPINS0_3 Address: CYREG_PRT3_DM0 Size (bytes): 8 */
 150:.\Generated_Source\PSoC5/cyfitter_cfg.c **** #define BS_IOPINS0_3_VAL ((const uint8 CYFAR *)0x48000340u)
 151:.\Generated_Source\PSoC5/cyfitter_cfg.c **** 
 152:.\Generated_Source\PSoC5/cyfitter_cfg.c **** /* IOPINS0_6 Address: CYREG_PRT6_DR Size (bytes): 10 */
 153:.\Generated_Source\PSoC5/cyfitter_cfg.c **** #define BS_IOPINS0_6_VAL ((const uint8 CYFAR *)0x48000348u)
 154:.\Generated_Source\PSoC5/cyfitter_cfg.c **** 
 155:.\Generated_Source\PSoC5/cyfitter_cfg.c **** 
 156:.\Generated_Source\PSoC5/cyfitter_cfg.c **** /*******************************************************************************
 157:.\Generated_Source\PSoC5/cyfitter_cfg.c **** * Function Name: cfg_write_bytes32
 158:.\Generated_Source\PSoC5/cyfitter_cfg.c **** ********************************************************************************
 159:.\Generated_Source\PSoC5/cyfitter_cfg.c **** * Summary:
 160:.\Generated_Source\PSoC5/cyfitter_cfg.c **** *  This function is used for setting up the chip configuration areas that
 161:.\Generated_Source\PSoC5/cyfitter_cfg.c **** *  contain relatively sparse data.
 162:.\Generated_Source\PSoC5/cyfitter_cfg.c **** *
 163:.\Generated_Source\PSoC5/cyfitter_cfg.c **** * Parameters:
 164:.\Generated_Source\PSoC5/cyfitter_cfg.c **** *   void
 165:.\Generated_Source\PSoC5/cyfitter_cfg.c **** *
 166:.\Generated_Source\PSoC5/cyfitter_cfg.c **** * Return:
 167:.\Generated_Source\PSoC5/cyfitter_cfg.c **** *   void
 168:.\Generated_Source\PSoC5/cyfitter_cfg.c **** *
 169:.\Generated_Source\PSoC5/cyfitter_cfg.c **** *******************************************************************************/
 170:.\Generated_Source\PSoC5/cyfitter_cfg.c **** static void cfg_write_bytes32(const uint32 addr_table[], const cy_cfg_addrvalue_t data_table[]);
 171:.\Generated_Source\PSoC5/cyfitter_cfg.c **** static void cfg_write_bytes32(const uint32 addr_table[], const cy_cfg_addrvalue_t data_table[])
 172:.\Generated_Source\PSoC5/cyfitter_cfg.c **** {
 163              		.loc 1 172 0
 164              		.cfi_startproc
 165              		@ args = 0, pretend = 0, frame = 24
 166              		@ frame_needed = 1, uses_anonymous_args = 0
 167              		@ link register save eliminated.
 168 0000 80B4     		push	{r7}
 169              		.cfi_def_cfa_offset 4
 170              		.cfi_offset 7, -4
ARM GAS  C:\Users\Andrew\AppData\Local\Temp\cczttxnE.s 			page 7


 171 0002 87B0     		sub	sp, sp, #28
 172              		.cfi_def_cfa_offset 32
 173 0004 00AF     		add	r7, sp, #0
 174              		.cfi_def_cfa_register 7
 175 0006 7860     		str	r0, [r7, #4]
 176 0008 3960     		str	r1, [r7]
 173:.\Generated_Source\PSoC5/cyfitter_cfg.c **** 	/* For 32-bit little-endian architectures */
 174:.\Generated_Source\PSoC5/cyfitter_cfg.c **** 	uint32 i, j = 0u;
 177              		.loc 1 174 0
 178 000a 0023     		movs	r3, #0
 179 000c 3B61     		str	r3, [r7, #16]
 175:.\Generated_Source\PSoC5/cyfitter_cfg.c **** 	for (i = 0u; i < CY_CFG_BASE_ADDR_COUNT; i++)
 180              		.loc 1 175 0
 181 000e 0023     		movs	r3, #0
 182 0010 7B61     		str	r3, [r7, #20]
 183 0012 27E0     		b	.L7
 184              	.L10:
 185              	.LBB2:
 176:.\Generated_Source\PSoC5/cyfitter_cfg.c **** 	{
 177:.\Generated_Source\PSoC5/cyfitter_cfg.c **** 		uint32 baseAddr = addr_table[i];
 186              		.loc 1 177 0
 187 0014 7B69     		ldr	r3, [r7, #20]
 188 0016 9B00     		lsls	r3, r3, #2
 189 0018 7A68     		ldr	r2, [r7, #4]
 190 001a 1344     		add	r3, r3, r2
 191 001c 1B68     		ldr	r3, [r3]
 192 001e BB60     		str	r3, [r7, #8]
 178:.\Generated_Source\PSoC5/cyfitter_cfg.c **** 		uint8 count = (uint8)baseAddr;
 193              		.loc 1 178 0
 194 0020 BB68     		ldr	r3, [r7, #8]
 195 0022 FB73     		strb	r3, [r7, #15]
 179:.\Generated_Source\PSoC5/cyfitter_cfg.c **** 		baseAddr &= 0xFFFFFF00u;
 196              		.loc 1 179 0
 197 0024 BB68     		ldr	r3, [r7, #8]
 198 0026 23F0FF03 		bic	r3, r3, #255
 199 002a BB60     		str	r3, [r7, #8]
 180:.\Generated_Source\PSoC5/cyfitter_cfg.c **** 		while (count != 0u)
 200              		.loc 1 180 0
 201 002c 14E0     		b	.L8
 202              	.L9:
 181:.\Generated_Source\PSoC5/cyfitter_cfg.c **** 		{
 182:.\Generated_Source\PSoC5/cyfitter_cfg.c **** 			CY_SET_XTND_REG8((void CYFAR *)(baseAddr + data_table[j].offset), data_table[j].value);
 203              		.loc 1 182 0
 204 002e 3B69     		ldr	r3, [r7, #16]
 205 0030 5B00     		lsls	r3, r3, #1
 206 0032 3A68     		ldr	r2, [r7]
 207 0034 1344     		add	r3, r3, r2
 208 0036 1B78     		ldrb	r3, [r3]	@ zero_extendqisi2
 209 0038 1A46     		mov	r2, r3
 210 003a BB68     		ldr	r3, [r7, #8]
 211 003c 1344     		add	r3, r3, r2
 212 003e 1946     		mov	r1, r3
 213 0040 3B69     		ldr	r3, [r7, #16]
 214 0042 5B00     		lsls	r3, r3, #1
 215 0044 3A68     		ldr	r2, [r7]
 216 0046 1344     		add	r3, r3, r2
 217 0048 5B78     		ldrb	r3, [r3, #1]	@ zero_extendqisi2
ARM GAS  C:\Users\Andrew\AppData\Local\Temp\cczttxnE.s 			page 8


 218 004a 0B70     		strb	r3, [r1]
 183:.\Generated_Source\PSoC5/cyfitter_cfg.c **** 			j++;
 219              		.loc 1 183 0
 220 004c 3B69     		ldr	r3, [r7, #16]
 221 004e 0133     		adds	r3, r3, #1
 222 0050 3B61     		str	r3, [r7, #16]
 184:.\Generated_Source\PSoC5/cyfitter_cfg.c **** 			count--;
 223              		.loc 1 184 0
 224 0052 FB7B     		ldrb	r3, [r7, #15]	@ zero_extendqisi2
 225 0054 013B     		subs	r3, r3, #1
 226 0056 FB73     		strb	r3, [r7, #15]
 227              	.L8:
 180:.\Generated_Source\PSoC5/cyfitter_cfg.c **** 		{
 228              		.loc 1 180 0
 229 0058 FB7B     		ldrb	r3, [r7, #15]	@ zero_extendqisi2
 230 005a 002B     		cmp	r3, #0
 231 005c E7D1     		bne	.L9
 232              	.LBE2:
 175:.\Generated_Source\PSoC5/cyfitter_cfg.c **** 	{
 233              		.loc 1 175 0 discriminator 2
 234 005e 7B69     		ldr	r3, [r7, #20]
 235 0060 0133     		adds	r3, r3, #1
 236 0062 7B61     		str	r3, [r7, #20]
 237              	.L7:
 175:.\Generated_Source\PSoC5/cyfitter_cfg.c **** 	{
 238              		.loc 1 175 0 is_stmt 0 discriminator 1
 239 0064 7B69     		ldr	r3, [r7, #20]
 240 0066 102B     		cmp	r3, #16
 241 0068 D4D9     		bls	.L10
 185:.\Generated_Source\PSoC5/cyfitter_cfg.c **** 		}
 186:.\Generated_Source\PSoC5/cyfitter_cfg.c **** 	}
 187:.\Generated_Source\PSoC5/cyfitter_cfg.c **** }
 242              		.loc 1 187 0 is_stmt 1
 243 006a 1C37     		adds	r7, r7, #28
 244              		.cfi_def_cfa_offset 4
 245 006c BD46     		mov	sp, r7
 246              		.cfi_def_cfa_register 13
 247              		@ sp needed
 248 006e 5DF8047B 		ldr	r7, [sp], #4
 249              		.cfi_restore 7
 250              		.cfi_def_cfa_offset 0
 251 0072 7047     		bx	lr
 252              		.cfi_endproc
 253              	.LFE4:
 254              		.size	cfg_write_bytes32, .-cfg_write_bytes32
 255              		.section	.text.ClockSetup,"ax",%progbits
 256              		.align	2
 257              		.thumb
 258              		.thumb_func
 259              		.type	ClockSetup, %function
 260              	ClockSetup:
 261              	.LFB5:
 188:.\Generated_Source\PSoC5/cyfitter_cfg.c **** 
 189:.\Generated_Source\PSoC5/cyfitter_cfg.c **** /*******************************************************************************
 190:.\Generated_Source\PSoC5/cyfitter_cfg.c **** * Function Name: ClockSetup
 191:.\Generated_Source\PSoC5/cyfitter_cfg.c **** ********************************************************************************
 192:.\Generated_Source\PSoC5/cyfitter_cfg.c **** *
ARM GAS  C:\Users\Andrew\AppData\Local\Temp\cczttxnE.s 			page 9


 193:.\Generated_Source\PSoC5/cyfitter_cfg.c **** * Summary:
 194:.\Generated_Source\PSoC5/cyfitter_cfg.c **** *  Performs the initialization of all of the clocks in the device based on the
 195:.\Generated_Source\PSoC5/cyfitter_cfg.c **** *  settings in the Clock tab of the DWR.  This includes enabling the requested
 196:.\Generated_Source\PSoC5/cyfitter_cfg.c **** *  clocks and setting the necessary dividers to produce the desired frequency. 
 197:.\Generated_Source\PSoC5/cyfitter_cfg.c **** *
 198:.\Generated_Source\PSoC5/cyfitter_cfg.c **** * Parameters:
 199:.\Generated_Source\PSoC5/cyfitter_cfg.c **** *  void
 200:.\Generated_Source\PSoC5/cyfitter_cfg.c **** *
 201:.\Generated_Source\PSoC5/cyfitter_cfg.c **** * Return:
 202:.\Generated_Source\PSoC5/cyfitter_cfg.c **** *  void
 203:.\Generated_Source\PSoC5/cyfitter_cfg.c **** *
 204:.\Generated_Source\PSoC5/cyfitter_cfg.c **** *******************************************************************************/
 205:.\Generated_Source\PSoC5/cyfitter_cfg.c **** static void ClockSetup(void);
 206:.\Generated_Source\PSoC5/cyfitter_cfg.c **** static void ClockSetup(void)
 207:.\Generated_Source\PSoC5/cyfitter_cfg.c **** {
 262              		.loc 1 207 0
 263              		.cfi_startproc
 264              		@ args = 0, pretend = 0, frame = 8
 265              		@ frame_needed = 1, uses_anonymous_args = 0
 266 0000 80B5     		push	{r7, lr}
 267              		.cfi_def_cfa_offset 8
 268              		.cfi_offset 7, -8
 269              		.cfi_offset 14, -4
 270 0002 82B0     		sub	sp, sp, #8
 271              		.cfi_def_cfa_offset 16
 272 0004 00AF     		add	r7, sp, #0
 273              		.cfi_def_cfa_register 7
 208:.\Generated_Source\PSoC5/cyfitter_cfg.c **** 	uint32 timeout;
 209:.\Generated_Source\PSoC5/cyfitter_cfg.c **** 	uint8 pllLock;
 210:.\Generated_Source\PSoC5/cyfitter_cfg.c **** 
 211:.\Generated_Source\PSoC5/cyfitter_cfg.c **** 
 212:.\Generated_Source\PSoC5/cyfitter_cfg.c **** 	/* Configure Digital Clocks based on settings from Clock DWR */
 213:.\Generated_Source\PSoC5/cyfitter_cfg.c **** 	CY_SET_XTND_REG16((void CYFAR *)(CYREG_CLKDIST_DCFG0_CFG0), 0x0001u);
 274              		.loc 1 213 0
 275 0006 334B     		ldr	r3, .L16
 276 0008 0122     		movs	r2, #1
 277 000a 1A80     		strh	r2, [r3]	@ movhi
 214:.\Generated_Source\PSoC5/cyfitter_cfg.c **** 	CY_SET_XTND_REG8((void CYFAR *)(CYREG_CLKDIST_DCFG0_CFG0 + 0x2u), 0x18u);
 278              		.loc 1 214 0
 279 000c 324B     		ldr	r3, .L16+4
 280 000e 1822     		movs	r2, #24
 281 0010 1A70     		strb	r2, [r3]
 215:.\Generated_Source\PSoC5/cyfitter_cfg.c **** 	CY_SET_XTND_REG16((void CYFAR *)(CYREG_CLKDIST_DCFG1_CFG0), 0x009Bu);
 282              		.loc 1 215 0
 283 0012 324B     		ldr	r3, .L16+8
 284 0014 9B22     		movs	r2, #155
 285 0016 1A80     		strh	r2, [r3]	@ movhi
 216:.\Generated_Source\PSoC5/cyfitter_cfg.c **** 	CY_SET_XTND_REG8((void CYFAR *)(CYREG_CLKDIST_DCFG1_CFG0 + 0x2u), 0x18u);
 286              		.loc 1 216 0
 287 0018 314B     		ldr	r3, .L16+12
 288 001a 1822     		movs	r2, #24
 289 001c 1A70     		strb	r2, [r3]
 217:.\Generated_Source\PSoC5/cyfitter_cfg.c **** 
 218:.\Generated_Source\PSoC5/cyfitter_cfg.c **** 	/* Configure ILO based on settings from Clock DWR */
 219:.\Generated_Source\PSoC5/cyfitter_cfg.c **** 	CY_SET_XTND_REG8((void CYFAR *)(CYREG_SLOWCLK_ILO_CR0), 0x02u);
 290              		.loc 1 219 0
 291 001e 314B     		ldr	r3, .L16+16
ARM GAS  C:\Users\Andrew\AppData\Local\Temp\cczttxnE.s 			page 10


 292 0020 0222     		movs	r2, #2
 293 0022 1A70     		strb	r2, [r3]
 220:.\Generated_Source\PSoC5/cyfitter_cfg.c **** 	CY_SET_XTND_REG8((void CYFAR *)(CYREG_CLKDIST_CR), 0x08u);
 294              		.loc 1 220 0
 295 0024 4FF04023 		mov	r3, #1073758208
 296 0028 0822     		movs	r2, #8
 297 002a 1A70     		strb	r2, [r3]
 221:.\Generated_Source\PSoC5/cyfitter_cfg.c **** 
 222:.\Generated_Source\PSoC5/cyfitter_cfg.c **** 	/* Configure IMO based on settings from Clock DWR */
 223:.\Generated_Source\PSoC5/cyfitter_cfg.c **** 	CY_SET_XTND_REG8((void CYFAR *)(CYREG_FASTCLK_IMO_CR), 0x03u);
 298              		.loc 1 223 0
 299 002c 2E4B     		ldr	r3, .L16+20
 300 002e 0322     		movs	r2, #3
 301 0030 1A70     		strb	r2, [r3]
 224:.\Generated_Source\PSoC5/cyfitter_cfg.c **** 	CY_SET_XTND_REG8((void CYFAR *)(CYREG_IMO_TR1), (CY_GET_XTND_REG8((void CYFAR *)CYREG_FLSHID_CUST_
 302              		.loc 1 224 0
 303 0032 2E4B     		ldr	r3, .L16+24
 304 0034 2E4A     		ldr	r2, .L16+28
 305 0036 1278     		ldrb	r2, [r2]
 306 0038 D2B2     		uxtb	r2, r2
 307 003a 1A70     		strb	r2, [r3]
 225:.\Generated_Source\PSoC5/cyfitter_cfg.c **** 
 226:.\Generated_Source\PSoC5/cyfitter_cfg.c **** 	/* Configure PLL based on settings from Clock DWR */
 227:.\Generated_Source\PSoC5/cyfitter_cfg.c **** 	CY_SET_XTND_REG16((void CYFAR *)(CYREG_FASTCLK_PLL_P), 0x0008u);
 308              		.loc 1 227 0
 309 003c 2D4B     		ldr	r3, .L16+32
 310 003e 0822     		movs	r2, #8
 311 0040 1A80     		strh	r2, [r3]	@ movhi
 228:.\Generated_Source\PSoC5/cyfitter_cfg.c **** 	CY_SET_XTND_REG16((void CYFAR *)(CYREG_FASTCLK_PLL_CFG0), 0x1251u);
 312              		.loc 1 228 0
 313 0042 2D4B     		ldr	r3, .L16+36
 314 0044 41F25122 		movw	r2, #4689
 315 0048 1A80     		strh	r2, [r3]	@ movhi
 229:.\Generated_Source\PSoC5/cyfitter_cfg.c **** 	/* Wait up to 250us for the PLL to lock */
 230:.\Generated_Source\PSoC5/cyfitter_cfg.c **** 	pllLock = 0u;
 316              		.loc 1 230 0
 317 004a 0023     		movs	r3, #0
 318 004c FB70     		strb	r3, [r7, #3]
 231:.\Generated_Source\PSoC5/cyfitter_cfg.c **** 	for (timeout = 250u / 10u; (timeout > 0u) && (pllLock != 0x03u); timeout--)
 319              		.loc 1 231 0
 320 004e 1923     		movs	r3, #25
 321 0050 7B60     		str	r3, [r7, #4]
 322 0052 14E0     		b	.L12
 323              	.L14:
 232:.\Generated_Source\PSoC5/cyfitter_cfg.c **** 	{ 
 233:.\Generated_Source\PSoC5/cyfitter_cfg.c **** 		pllLock = 0x03u & ((uint8)((uint8)pllLock << 1) | ((CY_GET_XTND_REG8((void CYFAR *)CYREG_FASTCLK_
 324              		.loc 1 233 0 discriminator 4
 325 0054 FB78     		ldrb	r3, [r7, #3]
 326 0056 5B00     		lsls	r3, r3, #1
 327 0058 DAB2     		uxtb	r2, r3
 328 005a 284B     		ldr	r3, .L16+40
 329 005c 1B78     		ldrb	r3, [r3]
 330 005e DBB2     		uxtb	r3, r3
 331 0060 03F00103 		and	r3, r3, #1
 332 0064 DBB2     		uxtb	r3, r3
 333 0066 1343     		orrs	r3, r3, r2
 334 0068 DBB2     		uxtb	r3, r3
ARM GAS  C:\Users\Andrew\AppData\Local\Temp\cczttxnE.s 			page 11


 335 006a 03F00303 		and	r3, r3, #3
 336 006e FB70     		strb	r3, [r7, #3]
 234:.\Generated_Source\PSoC5/cyfitter_cfg.c **** 		CyDelayCycles(10u * 48u); /* Delay 10us based on 48MHz clock */
 337              		.loc 1 234 0 discriminator 4
 338 0070 4FF4F070 		mov	r0, #480
 339 0074 FFF7FEFF 		bl	CyDelayCycles
 231:.\Generated_Source\PSoC5/cyfitter_cfg.c **** 	for (timeout = 250u / 10u; (timeout > 0u) && (pllLock != 0x03u); timeout--)
 340              		.loc 1 231 0 discriminator 4
 341 0078 7B68     		ldr	r3, [r7, #4]
 342 007a 013B     		subs	r3, r3, #1
 343 007c 7B60     		str	r3, [r7, #4]
 344              	.L12:
 231:.\Generated_Source\PSoC5/cyfitter_cfg.c **** 	for (timeout = 250u / 10u; (timeout > 0u) && (pllLock != 0x03u); timeout--)
 345              		.loc 1 231 0 is_stmt 0 discriminator 1
 346 007e 7B68     		ldr	r3, [r7, #4]
 347 0080 002B     		cmp	r3, #0
 348 0082 02D0     		beq	.L13
 231:.\Generated_Source\PSoC5/cyfitter_cfg.c **** 	for (timeout = 250u / 10u; (timeout > 0u) && (pllLock != 0x03u); timeout--)
 349              		.loc 1 231 0 discriminator 3
 350 0084 FB78     		ldrb	r3, [r7, #3]	@ zero_extendqisi2
 351 0086 032B     		cmp	r3, #3
 352 0088 E4D1     		bne	.L14
 353              	.L13:
 235:.\Generated_Source\PSoC5/cyfitter_cfg.c **** 	}
 236:.\Generated_Source\PSoC5/cyfitter_cfg.c **** 	/* If we ran out of time the PLL didn't lock so go to the error function */
 237:.\Generated_Source\PSoC5/cyfitter_cfg.c **** 	if (timeout == 0u)
 354              		.loc 1 237 0 is_stmt 1
 355 008a 7B68     		ldr	r3, [r7, #4]
 356 008c 002B     		cmp	r3, #0
 357 008e 02D1     		bne	.L15
 238:.\Generated_Source\PSoC5/cyfitter_cfg.c **** 	{
 239:.\Generated_Source\PSoC5/cyfitter_cfg.c **** 		CyClockStartupError(CYCLOCKSTART_PLL_ERROR);
 358              		.loc 1 239 0
 359 0090 0320     		movs	r0, #3
 360 0092 FFF7FEFF 		bl	CyClockStartupError
 361              	.L15:
 240:.\Generated_Source\PSoC5/cyfitter_cfg.c **** 	}
 241:.\Generated_Source\PSoC5/cyfitter_cfg.c **** 
 242:.\Generated_Source\PSoC5/cyfitter_cfg.c **** 	/* Configure Bus/Master Clock based on settings from Clock DWR */
 243:.\Generated_Source\PSoC5/cyfitter_cfg.c **** 	CY_SET_XTND_REG16((void CYFAR *)(CYREG_CLKDIST_MSTR0), 0x0100u);
 362              		.loc 1 243 0
 363 0096 1A4B     		ldr	r3, .L16+44
 364 0098 4FF48072 		mov	r2, #256
 365 009c 1A80     		strh	r2, [r3]	@ movhi
 244:.\Generated_Source\PSoC5/cyfitter_cfg.c **** 	CY_SET_XTND_REG8((void CYFAR *)(CYREG_CLKDIST_MSTR0), 0x07u);
 366              		.loc 1 244 0
 367 009e 184B     		ldr	r3, .L16+44
 368 00a0 0722     		movs	r2, #7
 369 00a2 1A70     		strb	r2, [r3]
 245:.\Generated_Source\PSoC5/cyfitter_cfg.c **** 	CY_SET_XTND_REG8((void CYFAR *)(CYREG_CLKDIST_BCFG0), 0x00u);
 370              		.loc 1 245 0
 371 00a4 174B     		ldr	r3, .L16+48
 372 00a6 0022     		movs	r2, #0
 373 00a8 1A70     		strb	r2, [r3]
 246:.\Generated_Source\PSoC5/cyfitter_cfg.c **** 	CY_SET_XTND_REG8((void CYFAR *)(CYREG_CLKDIST_BCFG2), 0x48u);
 374              		.loc 1 246 0
 375 00aa 174B     		ldr	r3, .L16+52
ARM GAS  C:\Users\Andrew\AppData\Local\Temp\cczttxnE.s 			page 12


 376 00ac 4822     		movs	r2, #72
 377 00ae 1A70     		strb	r2, [r3]
 247:.\Generated_Source\PSoC5/cyfitter_cfg.c **** 	CY_SET_XTND_REG8((void CYFAR *)(CYREG_CLKDIST_MSTR0), 0x00u);
 378              		.loc 1 247 0
 379 00b0 134B     		ldr	r3, .L16+44
 380 00b2 0022     		movs	r2, #0
 381 00b4 1A70     		strb	r2, [r3]
 248:.\Generated_Source\PSoC5/cyfitter_cfg.c **** 	CY_SET_XTND_REG8((void CYFAR *)(CYREG_CLKDIST_LD), 0x02u);
 382              		.loc 1 248 0
 383 00b6 154B     		ldr	r3, .L16+56
 384 00b8 0222     		movs	r2, #2
 385 00ba 1A70     		strb	r2, [r3]
 249:.\Generated_Source\PSoC5/cyfitter_cfg.c **** 
 250:.\Generated_Source\PSoC5/cyfitter_cfg.c **** 	CY_SET_XTND_REG8((void CYFAR *)(CYREG_PM_ACT_CFG2), ((CY_GET_XTND_REG8((void CYFAR *)CYREG_PM_ACT_
 386              		.loc 1 250 0
 387 00bc 144A     		ldr	r2, .L16+60
 388 00be 144B     		ldr	r3, .L16+60
 389 00c0 1B78     		ldrb	r3, [r3]
 390 00c2 DBB2     		uxtb	r3, r3
 391 00c4 43F00303 		orr	r3, r3, #3
 392 00c8 DBB2     		uxtb	r3, r3
 393 00ca 1370     		strb	r3, [r2]
 251:.\Generated_Source\PSoC5/cyfitter_cfg.c **** }
 394              		.loc 1 251 0
 395 00cc 0837     		adds	r7, r7, #8
 396              		.cfi_def_cfa_offset 8
 397 00ce BD46     		mov	sp, r7
 398              		.cfi_def_cfa_register 13
 399              		@ sp needed
 400 00d0 80BD     		pop	{r7, pc}
 401              	.L17:
 402 00d2 00BF     		.align	2
 403              	.L16:
 404 00d4 80400040 		.word	1073758336
 405 00d8 82400040 		.word	1073758338
 406 00dc 84400040 		.word	1073758340
 407 00e0 86400040 		.word	1073758342
 408 00e4 00430040 		.word	1073758976
 409 00e8 00420040 		.word	1073758720
 410 00ec A1460040 		.word	1073759905
 411 00f0 08010049 		.word	1224737032
 412 00f4 22420040 		.word	1073758754
 413 00f8 20420040 		.word	1073758752
 414 00fc 25420040 		.word	1073758757
 415 0100 04400040 		.word	1073758212
 416 0104 06400040 		.word	1073758214
 417 0108 08400040 		.word	1073758216
 418 010c 01400040 		.word	1073758209
 419 0110 A2430040 		.word	1073759138
 420              		.cfi_endproc
 421              	.LFE5:
 422              		.size	ClockSetup, .-ClockSetup
 423              		.section	.text.AnalogSetDefault,"ax",%progbits
 424              		.align	2
 425              		.thumb
 426              		.thumb_func
 427              		.type	AnalogSetDefault, %function
ARM GAS  C:\Users\Andrew\AppData\Local\Temp\cczttxnE.s 			page 13


 428              	AnalogSetDefault:
 429              	.LFB6:
 252:.\Generated_Source\PSoC5/cyfitter_cfg.c **** 
 253:.\Generated_Source\PSoC5/cyfitter_cfg.c **** 
 254:.\Generated_Source\PSoC5/cyfitter_cfg.c **** /* Analog API Functions */
 255:.\Generated_Source\PSoC5/cyfitter_cfg.c **** 
 256:.\Generated_Source\PSoC5/cyfitter_cfg.c **** 
 257:.\Generated_Source\PSoC5/cyfitter_cfg.c **** /*******************************************************************************
 258:.\Generated_Source\PSoC5/cyfitter_cfg.c **** * Function Name: AnalogSetDefault
 259:.\Generated_Source\PSoC5/cyfitter_cfg.c **** ********************************************************************************
 260:.\Generated_Source\PSoC5/cyfitter_cfg.c **** *
 261:.\Generated_Source\PSoC5/cyfitter_cfg.c **** * Summary:
 262:.\Generated_Source\PSoC5/cyfitter_cfg.c **** *  Sets up the analog portions of the chip to default values based on chip
 263:.\Generated_Source\PSoC5/cyfitter_cfg.c **** *  configuration options from the project.
 264:.\Generated_Source\PSoC5/cyfitter_cfg.c **** *
 265:.\Generated_Source\PSoC5/cyfitter_cfg.c **** * Parameters:
 266:.\Generated_Source\PSoC5/cyfitter_cfg.c **** *  void
 267:.\Generated_Source\PSoC5/cyfitter_cfg.c **** *
 268:.\Generated_Source\PSoC5/cyfitter_cfg.c **** * Return:
 269:.\Generated_Source\PSoC5/cyfitter_cfg.c **** *  void
 270:.\Generated_Source\PSoC5/cyfitter_cfg.c **** *
 271:.\Generated_Source\PSoC5/cyfitter_cfg.c **** *******************************************************************************/
 272:.\Generated_Source\PSoC5/cyfitter_cfg.c **** static void AnalogSetDefault(void);
 273:.\Generated_Source\PSoC5/cyfitter_cfg.c **** static void AnalogSetDefault(void)
 274:.\Generated_Source\PSoC5/cyfitter_cfg.c **** {
 430              		.loc 1 274 0
 431              		.cfi_startproc
 432              		@ args = 0, pretend = 0, frame = 8
 433              		@ frame_needed = 1, uses_anonymous_args = 0
 434              		@ link register save eliminated.
 435 0000 80B4     		push	{r7}
 436              		.cfi_def_cfa_offset 4
 437              		.cfi_offset 7, -4
 438 0002 83B0     		sub	sp, sp, #12
 439              		.cfi_def_cfa_offset 16
 440 0004 00AF     		add	r7, sp, #0
 441              		.cfi_def_cfa_register 7
 275:.\Generated_Source\PSoC5/cyfitter_cfg.c **** 	uint8 bg_xover_inl_trim = CY_GET_XTND_REG8((void CYFAR *)(CYREG_FLSHID_MFG_CFG_BG_XOVER_INL_TRIM +
 442              		.loc 1 275 0
 443 0006 0B4B     		ldr	r3, .L19
 444 0008 1B78     		ldrb	r3, [r3]
 445 000a FB71     		strb	r3, [r7, #7]
 276:.\Generated_Source\PSoC5/cyfitter_cfg.c **** 	CY_SET_XTND_REG8((void CYFAR *)(CYREG_BG_DFT0), (bg_xover_inl_trim & 0x07u));
 446              		.loc 1 276 0
 447 000c 0A4A     		ldr	r2, .L19+4
 448 000e FB79     		ldrb	r3, [r7, #7]
 449 0010 03F00703 		and	r3, r3, #7
 450 0014 DBB2     		uxtb	r3, r3
 451 0016 1370     		strb	r3, [r2]
 277:.\Generated_Source\PSoC5/cyfitter_cfg.c **** 	CY_SET_XTND_REG8((void CYFAR *)(CYREG_BG_DFT1), ((bg_xover_inl_trim >> 4) & 0x0Fu));
 452              		.loc 1 277 0
 453 0018 084A     		ldr	r2, .L19+8
 454 001a FB79     		ldrb	r3, [r7, #7]	@ zero_extendqisi2
 455 001c 1B09     		lsrs	r3, r3, #4
 456 001e DBB2     		uxtb	r3, r3
 457 0020 1370     		strb	r3, [r2]
 278:.\Generated_Source\PSoC5/cyfitter_cfg.c **** 	CY_SET_XTND_REG8((void CYFAR *)CYREG_PUMP_CR0, 0x44u);
ARM GAS  C:\Users\Andrew\AppData\Local\Temp\cczttxnE.s 			page 14


 458              		.loc 1 278 0
 459 0022 074B     		ldr	r3, .L19+12
 460 0024 4422     		movs	r2, #68
 461 0026 1A70     		strb	r2, [r3]
 279:.\Generated_Source\PSoC5/cyfitter_cfg.c **** }
 462              		.loc 1 279 0
 463 0028 0C37     		adds	r7, r7, #12
 464              		.cfi_def_cfa_offset 4
 465 002a BD46     		mov	sp, r7
 466              		.cfi_def_cfa_register 13
 467              		@ sp needed
 468 002c 5DF8047B 		ldr	r7, [sp], #4
 469              		.cfi_restore 7
 470              		.cfi_def_cfa_offset 0
 471 0030 7047     		bx	lr
 472              	.L20:
 473 0032 00BF     		.align	2
 474              	.L19:
 475 0034 CF010049 		.word	1224737231
 476 0038 6E580040 		.word	1073764462
 477 003c 6F580040 		.word	1073764463
 478 0040 76580040 		.word	1073764470
 479              		.cfi_endproc
 480              	.LFE6:
 481              		.size	AnalogSetDefault, .-AnalogSetDefault
 482              		.section	.text.SetAnalogRoutingPumps,"ax",%progbits
 483              		.align	2
 484              		.global	SetAnalogRoutingPumps
 485              		.thumb
 486              		.thumb_func
 487              		.type	SetAnalogRoutingPumps, %function
 488              	SetAnalogRoutingPumps:
 489              	.LFB7:
 280:.\Generated_Source\PSoC5/cyfitter_cfg.c **** 
 281:.\Generated_Source\PSoC5/cyfitter_cfg.c **** 
 282:.\Generated_Source\PSoC5/cyfitter_cfg.c **** /*******************************************************************************
 283:.\Generated_Source\PSoC5/cyfitter_cfg.c **** * Function Name: SetAnalogRoutingPumps
 284:.\Generated_Source\PSoC5/cyfitter_cfg.c **** ********************************************************************************
 285:.\Generated_Source\PSoC5/cyfitter_cfg.c **** *
 286:.\Generated_Source\PSoC5/cyfitter_cfg.c **** * Summary:
 287:.\Generated_Source\PSoC5/cyfitter_cfg.c **** * Enables or disables the analog pumps feeding analog routing switches.
 288:.\Generated_Source\PSoC5/cyfitter_cfg.c **** * Intended to be called at startup, based on the Vdda system configuration;
 289:.\Generated_Source\PSoC5/cyfitter_cfg.c **** * may be called during operation when the user informs us that the Vdda voltage
 290:.\Generated_Source\PSoC5/cyfitter_cfg.c **** * crossed the pump threshold.
 291:.\Generated_Source\PSoC5/cyfitter_cfg.c **** *
 292:.\Generated_Source\PSoC5/cyfitter_cfg.c **** * Parameters:
 293:.\Generated_Source\PSoC5/cyfitter_cfg.c **** *  enabled - 1 to enable the pumps, 0 to disable the pumps
 294:.\Generated_Source\PSoC5/cyfitter_cfg.c **** *
 295:.\Generated_Source\PSoC5/cyfitter_cfg.c **** * Return:
 296:.\Generated_Source\PSoC5/cyfitter_cfg.c **** *  void
 297:.\Generated_Source\PSoC5/cyfitter_cfg.c **** *
 298:.\Generated_Source\PSoC5/cyfitter_cfg.c **** *******************************************************************************/
 299:.\Generated_Source\PSoC5/cyfitter_cfg.c **** void SetAnalogRoutingPumps(uint8 enabled)
 300:.\Generated_Source\PSoC5/cyfitter_cfg.c **** {
 490              		.loc 1 300 0
 491              		.cfi_startproc
 492              		@ args = 0, pretend = 0, frame = 16
ARM GAS  C:\Users\Andrew\AppData\Local\Temp\cczttxnE.s 			page 15


 493              		@ frame_needed = 1, uses_anonymous_args = 0
 494              		@ link register save eliminated.
 495 0000 80B4     		push	{r7}
 496              		.cfi_def_cfa_offset 4
 497              		.cfi_offset 7, -4
 498 0002 85B0     		sub	sp, sp, #20
 499              		.cfi_def_cfa_offset 24
 500 0004 00AF     		add	r7, sp, #0
 501              		.cfi_def_cfa_register 7
 502 0006 0346     		mov	r3, r0
 503 0008 FB71     		strb	r3, [r7, #7]
 301:.\Generated_Source\PSoC5/cyfitter_cfg.c **** 	uint8 regValue = CY_GET_XTND_REG8((void CYFAR *)CYREG_PUMP_CR0);
 504              		.loc 1 301 0
 505 000a 064B     		ldr	r3, .L24
 506 000c 1B78     		ldrb	r3, [r3]
 507 000e FB73     		strb	r3, [r7, #15]
 302:.\Generated_Source\PSoC5/cyfitter_cfg.c **** 	if (enabled != 0u)
 508              		.loc 1 302 0
 509 0010 FB79     		ldrb	r3, [r7, #7]	@ zero_extendqisi2
 510 0012 002B     		cmp	r3, #0
 303:.\Generated_Source\PSoC5/cyfitter_cfg.c **** 	{
 304:.\Generated_Source\PSoC5/cyfitter_cfg.c **** 		regValue |= 0x00u;
 305:.\Generated_Source\PSoC5/cyfitter_cfg.c **** 	}
 306:.\Generated_Source\PSoC5/cyfitter_cfg.c **** 	else
 307:.\Generated_Source\PSoC5/cyfitter_cfg.c **** 	{
 308:.\Generated_Source\PSoC5/cyfitter_cfg.c **** 		regValue &= (uint8)~0x00u;
 309:.\Generated_Source\PSoC5/cyfitter_cfg.c **** 	}
 310:.\Generated_Source\PSoC5/cyfitter_cfg.c **** 	CY_SET_XTND_REG8((void CYFAR *)CYREG_PUMP_CR0, regValue);
 511              		.loc 1 310 0
 512 0014 034A     		ldr	r2, .L24
 513 0016 FB7B     		ldrb	r3, [r7, #15]
 514 0018 1370     		strb	r3, [r2]
 311:.\Generated_Source\PSoC5/cyfitter_cfg.c **** }
 515              		.loc 1 311 0
 516 001a 1437     		adds	r7, r7, #20
 517              		.cfi_def_cfa_offset 4
 518 001c BD46     		mov	sp, r7
 519              		.cfi_def_cfa_register 13
 520              		@ sp needed
 521 001e 5DF8047B 		ldr	r7, [sp], #4
 522              		.cfi_restore 7
 523              		.cfi_def_cfa_offset 0
 524 0022 7047     		bx	lr
 525              	.L25:
 526              		.align	2
 527              	.L24:
 528 0024 76580040 		.word	1073764470
 529              		.cfi_endproc
 530              	.LFE7:
 531              		.size	SetAnalogRoutingPumps, .-SetAnalogRoutingPumps
 532              		.section	.text.cyfitter_cfg,"ax",%progbits
 533              		.align	2
 534              		.global	cyfitter_cfg
 535              		.thumb
 536              		.thumb_func
 537              		.type	cyfitter_cfg, %function
 538              	cyfitter_cfg:
ARM GAS  C:\Users\Andrew\AppData\Local\Temp\cczttxnE.s 			page 16


 539              	.LFB8:
 312:.\Generated_Source\PSoC5/cyfitter_cfg.c **** 
 313:.\Generated_Source\PSoC5/cyfitter_cfg.c **** #define CY_AMUX_UNUSED CYREG_BOOST_SR
 314:.\Generated_Source\PSoC5/cyfitter_cfg.c **** 
 315:.\Generated_Source\PSoC5/cyfitter_cfg.c **** 
 316:.\Generated_Source\PSoC5/cyfitter_cfg.c **** /*******************************************************************************
 317:.\Generated_Source\PSoC5/cyfitter_cfg.c **** * Function Name: cyfitter_cfg
 318:.\Generated_Source\PSoC5/cyfitter_cfg.c **** ********************************************************************************
 319:.\Generated_Source\PSoC5/cyfitter_cfg.c **** * Summary:
 320:.\Generated_Source\PSoC5/cyfitter_cfg.c **** *  This function is called by the start-up code for the selected device. It
 321:.\Generated_Source\PSoC5/cyfitter_cfg.c **** *  performs all of the necessary device configuration based on the design
 322:.\Generated_Source\PSoC5/cyfitter_cfg.c **** *  settings.  This includes settings from the Design Wide Resources (DWR) such
 323:.\Generated_Source\PSoC5/cyfitter_cfg.c **** *  as Clocks and Pins as well as any component configuration that is necessary.
 324:.\Generated_Source\PSoC5/cyfitter_cfg.c **** *
 325:.\Generated_Source\PSoC5/cyfitter_cfg.c **** * Parameters:  
 326:.\Generated_Source\PSoC5/cyfitter_cfg.c **** *   void
 327:.\Generated_Source\PSoC5/cyfitter_cfg.c **** *
 328:.\Generated_Source\PSoC5/cyfitter_cfg.c **** * Return:
 329:.\Generated_Source\PSoC5/cyfitter_cfg.c **** *   void
 330:.\Generated_Source\PSoC5/cyfitter_cfg.c **** *
 331:.\Generated_Source\PSoC5/cyfitter_cfg.c **** *******************************************************************************/
 332:.\Generated_Source\PSoC5/cyfitter_cfg.c **** 
 333:.\Generated_Source\PSoC5/cyfitter_cfg.c **** void cyfitter_cfg(void)
 334:.\Generated_Source\PSoC5/cyfitter_cfg.c **** {
 540              		.loc 1 334 0
 541              		.cfi_startproc
 542              		@ args = 0, pretend = 0, frame = 24
 543              		@ frame_needed = 1, uses_anonymous_args = 0
 544 0000 80B5     		push	{r7, lr}
 545              		.cfi_def_cfa_offset 8
 546              		.cfi_offset 7, -8
 547              		.cfi_offset 14, -4
 548 0002 86B0     		sub	sp, sp, #24
 549              		.cfi_def_cfa_offset 32
 550 0004 00AF     		add	r7, sp, #0
 551              		.cfi_def_cfa_register 7
 335:.\Generated_Source\PSoC5/cyfitter_cfg.c **** #ifdef CYGlobalIntDisable
 336:.\Generated_Source\PSoC5/cyfitter_cfg.c **** 	/* Disable interrupts by default. Let user enable if/when they want. */
 337:.\Generated_Source\PSoC5/cyfitter_cfg.c **** 	CYGlobalIntDisable
 552              		.loc 1 337 0
 553              	@ 337 ".\Generated_Source\PSoC5\cyfitter_cfg.c" 1
 554 0006 72B6     		CPSID   i
 555              	@ 0 "" 2
 338:.\Generated_Source\PSoC5/cyfitter_cfg.c **** #endif
 339:.\Generated_Source\PSoC5/cyfitter_cfg.c **** 
 340:.\Generated_Source\PSoC5/cyfitter_cfg.c **** 	/* Enable/Disable Debug functionality based on settings from System DWR */
 341:.\Generated_Source\PSoC5/cyfitter_cfg.c **** 	CY_SET_XTND_REG8((void CYFAR *)CYREG_MLOGIC_DEBUG, (CY_GET_XTND_REG8((void CYFAR *)CYREG_MLOGIC_DE
 556              		.loc 1 341 0
 557              		.thumb
 558 0008 4F4A     		ldr	r2, .L31
 559 000a 4F4B     		ldr	r3, .L31
 560 000c 1B78     		ldrb	r3, [r3]
 561 000e DBB2     		uxtb	r3, r3
 562 0010 43F00403 		orr	r3, r3, #4
 563 0014 DBB2     		uxtb	r3, r3
 564 0016 1370     		strb	r3, [r2]
 565              	.LBB3:
ARM GAS  C:\Users\Andrew\AppData\Local\Temp\cczttxnE.s 			page 17


 342:.\Generated_Source\PSoC5/cyfitter_cfg.c **** 
 343:.\Generated_Source\PSoC5/cyfitter_cfg.c **** 	{
 344:.\Generated_Source\PSoC5/cyfitter_cfg.c **** 
 345:.\Generated_Source\PSoC5/cyfitter_cfg.c **** 		CYPACKED typedef struct {
 346:.\Generated_Source\PSoC5/cyfitter_cfg.c **** 			void CYFAR *address;
 347:.\Generated_Source\PSoC5/cyfitter_cfg.c **** 			uint16 size;
 348:.\Generated_Source\PSoC5/cyfitter_cfg.c **** 		} CYPACKED_ATTR cfg_memset_t;
 349:.\Generated_Source\PSoC5/cyfitter_cfg.c **** 
 350:.\Generated_Source\PSoC5/cyfitter_cfg.c **** 
 351:.\Generated_Source\PSoC5/cyfitter_cfg.c **** 		CYPACKED typedef struct {
 352:.\Generated_Source\PSoC5/cyfitter_cfg.c **** 			void CYFAR *dest;
 353:.\Generated_Source\PSoC5/cyfitter_cfg.c **** 			const void CYFAR *src;
 354:.\Generated_Source\PSoC5/cyfitter_cfg.c **** 			uint16 size;
 355:.\Generated_Source\PSoC5/cyfitter_cfg.c **** 		} CYPACKED_ATTR cfg_memcpy_t;
 356:.\Generated_Source\PSoC5/cyfitter_cfg.c **** 
 357:.\Generated_Source\PSoC5/cyfitter_cfg.c **** 		static const cfg_memset_t CYCODE cfg_memset_list [] = {
 358:.\Generated_Source\PSoC5/cyfitter_cfg.c **** 			/* address, size */
 359:.\Generated_Source\PSoC5/cyfitter_cfg.c **** 			{(void CYFAR *)(CYREG_PRT1_DR), 16u},
 360:.\Generated_Source\PSoC5/cyfitter_cfg.c **** 			{(void CYFAR *)(CYREG_PRT4_DR), 32u},
 361:.\Generated_Source\PSoC5/cyfitter_cfg.c **** 			{(void CYFAR *)(CYREG_PRT15_DR), 16u},
 362:.\Generated_Source\PSoC5/cyfitter_cfg.c **** 			{(void CYFAR *)(CYDEV_UCFG_B0_P0_U0_BASE), 3072u},
 363:.\Generated_Source\PSoC5/cyfitter_cfg.c **** 			{(void CYFAR *)(CYDEV_UCFG_B0_P6_U1_BASE), 896u},
 364:.\Generated_Source\PSoC5/cyfitter_cfg.c **** 			{(void CYFAR *)(CYDEV_UCFG_B1_P2_U0_BASE), 2048u},
 365:.\Generated_Source\PSoC5/cyfitter_cfg.c **** 			{(void CYFAR *)(CYDEV_UCFG_DSI0_BASE), 2560u},
 366:.\Generated_Source\PSoC5/cyfitter_cfg.c **** 			{(void CYFAR *)(CYDEV_UCFG_DSI12_BASE), 512u},
 367:.\Generated_Source\PSoC5/cyfitter_cfg.c **** 			{(void CYFAR *)(CYREG_BCTL0_MDCLK_EN), 32u},
 368:.\Generated_Source\PSoC5/cyfitter_cfg.c **** 		};
 369:.\Generated_Source\PSoC5/cyfitter_cfg.c **** 
 370:.\Generated_Source\PSoC5/cyfitter_cfg.c **** 		static const cfg_memcpy_t CYCODE cfg_memcpy_list [] = {
 371:.\Generated_Source\PSoC5/cyfitter_cfg.c **** 			/* dest, src, size */
 372:.\Generated_Source\PSoC5/cyfitter_cfg.c **** 			{(void CYFAR *)(CYDEV_UCFG_B0_P6_U0_BASE), BS_UDB_0_4_1_CONFIG_VAL, 128u},
 373:.\Generated_Source\PSoC5/cyfitter_cfg.c **** 		};
 374:.\Generated_Source\PSoC5/cyfitter_cfg.c **** 
 375:.\Generated_Source\PSoC5/cyfitter_cfg.c **** 		uint8 CYDATA i;
 376:.\Generated_Source\PSoC5/cyfitter_cfg.c **** 
 377:.\Generated_Source\PSoC5/cyfitter_cfg.c **** 		/* Zero out critical memory blocks before beginning configuration */
 378:.\Generated_Source\PSoC5/cyfitter_cfg.c **** 		for (i = 0u; i < (sizeof(cfg_memset_list)/sizeof(cfg_memset_list[0])); i++)
 566              		.loc 1 378 0
 567 0018 0023     		movs	r3, #0
 568 001a FB75     		strb	r3, [r7, #23]
 569 001c 13E0     		b	.L27
 570              	.L28:
 571              	.LBB4:
 379:.\Generated_Source\PSoC5/cyfitter_cfg.c **** 		{
 380:.\Generated_Source\PSoC5/cyfitter_cfg.c **** 			const cfg_memset_t CYCODE * CYDATA ms = &cfg_memset_list[i];
 572              		.loc 1 380 0 discriminator 3
 573 001e FA7D     		ldrb	r2, [r7, #23]	@ zero_extendqisi2
 574 0020 1346     		mov	r3, r2
 575 0022 5B00     		lsls	r3, r3, #1
 576 0024 1344     		add	r3, r3, r2
 577 0026 5B00     		lsls	r3, r3, #1
 578 0028 484A     		ldr	r2, .L31+4
 579 002a 1344     		add	r3, r3, r2
 580 002c 3B61     		str	r3, [r7, #16]
 381:.\Generated_Source\PSoC5/cyfitter_cfg.c **** 			CYMEMZERO(ms->address, (size_t)(uint32)(ms->size));
 581              		.loc 1 381 0 discriminator 3
 582 002e 3B69     		ldr	r3, [r7, #16]
ARM GAS  C:\Users\Andrew\AppData\Local\Temp\cczttxnE.s 			page 18


 583 0030 1A68     		ldr	r2, [r3]	@ unaligned
 584 0032 3B69     		ldr	r3, [r7, #16]
 585 0034 9B88     		ldrh	r3, [r3, #4]	@ unaligned
 586 0036 9BB2     		uxth	r3, r3
 587 0038 1046     		mov	r0, r2
 588 003a 1946     		mov	r1, r3
 589 003c FFF7FEFF 		bl	CYMEMZERO
 590              	.LBE4:
 378:.\Generated_Source\PSoC5/cyfitter_cfg.c **** 		{
 591              		.loc 1 378 0 discriminator 3
 592 0040 FB7D     		ldrb	r3, [r7, #23]	@ zero_extendqisi2
 593 0042 0133     		adds	r3, r3, #1
 594 0044 FB75     		strb	r3, [r7, #23]
 595              	.L27:
 378:.\Generated_Source\PSoC5/cyfitter_cfg.c **** 		{
 596              		.loc 1 378 0 is_stmt 0 discriminator 1
 597 0046 FB7D     		ldrb	r3, [r7, #23]	@ zero_extendqisi2
 598 0048 082B     		cmp	r3, #8
 599 004a E8D9     		bls	.L28
 382:.\Generated_Source\PSoC5/cyfitter_cfg.c **** 		}
 383:.\Generated_Source\PSoC5/cyfitter_cfg.c **** 
 384:.\Generated_Source\PSoC5/cyfitter_cfg.c **** 		/* Copy device configuration data into registers */
 385:.\Generated_Source\PSoC5/cyfitter_cfg.c **** 		for (i = 0u; i < (sizeof(cfg_memcpy_list)/sizeof(cfg_memcpy_list[0])); i++)
 600              		.loc 1 385 0 is_stmt 1
 601 004c 0023     		movs	r3, #0
 602 004e FB75     		strb	r3, [r7, #23]
 603 0050 1CE0     		b	.L29
 604              	.L30:
 605              	.LBB5:
 386:.\Generated_Source\PSoC5/cyfitter_cfg.c **** 		{
 387:.\Generated_Source\PSoC5/cyfitter_cfg.c **** 			const cfg_memcpy_t CYCODE * CYDATA mc = &cfg_memcpy_list[i];
 606              		.loc 1 387 0 discriminator 3
 607 0052 FA7D     		ldrb	r2, [r7, #23]	@ zero_extendqisi2
 608 0054 1346     		mov	r3, r2
 609 0056 9B00     		lsls	r3, r3, #2
 610 0058 1344     		add	r3, r3, r2
 611 005a 5B00     		lsls	r3, r3, #1
 612 005c 3C4A     		ldr	r2, .L31+8
 613 005e 1344     		add	r3, r3, r2
 614 0060 FB60     		str	r3, [r7, #12]
 388:.\Generated_Source\PSoC5/cyfitter_cfg.c **** 			void * CYDATA destPtr = mc->dest;
 615              		.loc 1 388 0 discriminator 3
 616 0062 FB68     		ldr	r3, [r7, #12]
 617 0064 1B68     		ldr	r3, [r3]	@ unaligned
 618 0066 BB60     		str	r3, [r7, #8]
 389:.\Generated_Source\PSoC5/cyfitter_cfg.c **** 			const void * CYDATA srcPtr = mc->src;
 619              		.loc 1 389 0 discriminator 3
 620 0068 FB68     		ldr	r3, [r7, #12]
 621 006a 5B68     		ldr	r3, [r3, #4]	@ unaligned
 622 006c 7B60     		str	r3, [r7, #4]
 390:.\Generated_Source\PSoC5/cyfitter_cfg.c **** 			uint16 CYDATA numBytes = mc->size;
 623              		.loc 1 390 0 discriminator 3
 624 006e FB68     		ldr	r3, [r7, #12]
 625 0070 1A7A     		ldrb	r2, [r3, #8]	@ zero_extendqisi2
 626 0072 5B7A     		ldrb	r3, [r3, #9]	@ zero_extendqisi2
 627 0074 1B02     		lsls	r3, r3, #8
 628 0076 1343     		orrs	r3, r3, r2
ARM GAS  C:\Users\Andrew\AppData\Local\Temp\cczttxnE.s 			page 19


 629 0078 7B80     		strh	r3, [r7, #2]	@ movhi
 391:.\Generated_Source\PSoC5/cyfitter_cfg.c **** 			CYCONFIGCPY(destPtr, srcPtr, numBytes);
 630              		.loc 1 391 0 discriminator 3
 631 007a 7B88     		ldrh	r3, [r7, #2]
 632 007c B868     		ldr	r0, [r7, #8]
 633 007e 7968     		ldr	r1, [r7, #4]
 634 0080 1A46     		mov	r2, r3
 635 0082 FFF7FEFF 		bl	CYCONFIGCPY
 636              	.LBE5:
 385:.\Generated_Source\PSoC5/cyfitter_cfg.c **** 		{
 637              		.loc 1 385 0 discriminator 3
 638 0086 FB7D     		ldrb	r3, [r7, #23]	@ zero_extendqisi2
 639 0088 0133     		adds	r3, r3, #1
 640 008a FB75     		strb	r3, [r7, #23]
 641              	.L29:
 385:.\Generated_Source\PSoC5/cyfitter_cfg.c **** 		{
 642              		.loc 1 385 0 is_stmt 0 discriminator 1
 643 008c FB7D     		ldrb	r3, [r7, #23]	@ zero_extendqisi2
 644 008e 002B     		cmp	r3, #0
 645 0090 DFD0     		beq	.L30
 392:.\Generated_Source\PSoC5/cyfitter_cfg.c **** 		}
 393:.\Generated_Source\PSoC5/cyfitter_cfg.c **** 
 394:.\Generated_Source\PSoC5/cyfitter_cfg.c **** 		cfg_write_bytes32(cy_cfg_addr_table, cy_cfg_data_table);
 646              		.loc 1 394 0 is_stmt 1
 647 0092 4FF09040 		mov	r0, #1207959552
 648 0096 2F49     		ldr	r1, .L31+12
 649 0098 FFF7FEFF 		bl	cfg_write_bytes32
 395:.\Generated_Source\PSoC5/cyfitter_cfg.c **** 
 396:.\Generated_Source\PSoC5/cyfitter_cfg.c **** 		/* Enable digital routing */
 397:.\Generated_Source\PSoC5/cyfitter_cfg.c **** 		CY_SET_XTND_REG8((void CYFAR *)CYREG_BCTL0_BANK_CTL, CY_GET_XTND_REG8((void CYFAR *)CYREG_BCTL0_B
 650              		.loc 1 397 0
 651 009c 2E4A     		ldr	r2, .L31+16
 652 009e 2E4B     		ldr	r3, .L31+16
 653 00a0 1B78     		ldrb	r3, [r3]
 654 00a2 DBB2     		uxtb	r3, r3
 655 00a4 43F00203 		orr	r3, r3, #2
 656 00a8 DBB2     		uxtb	r3, r3
 657 00aa 1370     		strb	r3, [r2]
 398:.\Generated_Source\PSoC5/cyfitter_cfg.c **** 		CY_SET_XTND_REG8((void CYFAR *)CYREG_BCTL1_BANK_CTL, CY_GET_XTND_REG8((void CYFAR *)CYREG_BCTL1_B
 658              		.loc 1 398 0
 659 00ac 2B4A     		ldr	r2, .L31+20
 660 00ae 2B4B     		ldr	r3, .L31+20
 661 00b0 1B78     		ldrb	r3, [r3]
 662 00b2 DBB2     		uxtb	r3, r3
 663 00b4 43F00203 		orr	r3, r3, #2
 664 00b8 DBB2     		uxtb	r3, r3
 665 00ba 1370     		strb	r3, [r2]
 399:.\Generated_Source\PSoC5/cyfitter_cfg.c **** 
 400:.\Generated_Source\PSoC5/cyfitter_cfg.c **** 		/* Enable UDB array */
 401:.\Generated_Source\PSoC5/cyfitter_cfg.c **** 		CY_SET_XTND_REG8((void CYFAR *)CYREG_PM_ACT_CFG0, CY_GET_XTND_REG8((void CYFAR *)CYREG_PM_ACT_CFG
 666              		.loc 1 401 0
 667 00bc 284A     		ldr	r2, .L31+24
 668 00be 284B     		ldr	r3, .L31+24
 669 00c0 1B78     		ldrb	r3, [r3]
 670 00c2 DBB2     		uxtb	r3, r3
 671 00c4 43F04003 		orr	r3, r3, #64
 672 00c8 DBB2     		uxtb	r3, r3
ARM GAS  C:\Users\Andrew\AppData\Local\Temp\cczttxnE.s 			page 20


 673 00ca 1370     		strb	r3, [r2]
 402:.\Generated_Source\PSoC5/cyfitter_cfg.c **** 		CY_SET_XTND_REG8((void CYFAR *)CYREG_PM_AVAIL_CR2, CY_GET_XTND_REG8((void CYFAR *)CYREG_PM_AVAIL_
 674              		.loc 1 402 0
 675 00cc 254A     		ldr	r2, .L31+28
 676 00ce 254B     		ldr	r3, .L31+28
 677 00d0 1B78     		ldrb	r3, [r3]
 678 00d2 DBB2     		uxtb	r3, r3
 679 00d4 43F01003 		orr	r3, r3, #16
 680 00d8 DBB2     		uxtb	r3, r3
 681 00da 1370     		strb	r3, [r2]
 682              	.LBE3:
 403:.\Generated_Source\PSoC5/cyfitter_cfg.c **** 	}
 404:.\Generated_Source\PSoC5/cyfitter_cfg.c **** 
 405:.\Generated_Source\PSoC5/cyfitter_cfg.c **** 
 406:.\Generated_Source\PSoC5/cyfitter_cfg.c **** 	/* Perform second pass device configuration. These items must be configured in specific order afte
 407:.\Generated_Source\PSoC5/cyfitter_cfg.c **** 	CYCONFIGCPY((void CYFAR *)(CYREG_PRT0_DM0), (const void CYFAR *)(BS_IOPINS0_0_VAL), 8u);
 683              		.loc 1 407 0
 684 00dc 2248     		ldr	r0, .L31+32
 685 00de 2349     		ldr	r1, .L31+36
 686 00e0 0822     		movs	r2, #8
 687 00e2 FFF7FEFF 		bl	CYCONFIGCPY
 408:.\Generated_Source\PSoC5/cyfitter_cfg.c **** 	CYCONFIGCPY((void CYFAR *)(CYREG_PRT12_DM0), (const void CYFAR *)(BS_IOPINS0_7_VAL), 8u);
 688              		.loc 1 408 0
 689 00e6 2248     		ldr	r0, .L31+40
 690 00e8 2249     		ldr	r1, .L31+44
 691 00ea 0822     		movs	r2, #8
 692 00ec FFF7FEFF 		bl	CYCONFIGCPY
 409:.\Generated_Source\PSoC5/cyfitter_cfg.c **** 	CYCONFIGCPY((void CYFAR *)(CYREG_PRT2_DM0), (const void CYFAR *)(BS_IOPINS0_2_VAL), 8u);
 693              		.loc 1 409 0
 694 00f0 2148     		ldr	r0, .L31+48
 695 00f2 2249     		ldr	r1, .L31+52
 696 00f4 0822     		movs	r2, #8
 697 00f6 FFF7FEFF 		bl	CYCONFIGCPY
 410:.\Generated_Source\PSoC5/cyfitter_cfg.c **** 	CYCONFIGCPY((void CYFAR *)(CYREG_PRT3_DM0), (const void CYFAR *)(BS_IOPINS0_3_VAL), 8u);
 698              		.loc 1 410 0
 699 00fa 2148     		ldr	r0, .L31+56
 700 00fc 2149     		ldr	r1, .L31+60
 701 00fe 0822     		movs	r2, #8
 702 0100 FFF7FEFF 		bl	CYCONFIGCPY
 411:.\Generated_Source\PSoC5/cyfitter_cfg.c **** 	CYCONFIGCPY((void CYFAR *)(CYREG_PRT6_DR), (const void CYFAR *)(BS_IOPINS0_6_VAL), 10u);
 703              		.loc 1 411 0
 704 0104 2048     		ldr	r0, .L31+64
 705 0106 2149     		ldr	r1, .L31+68
 706 0108 0A22     		movs	r2, #10
 707 010a FFF7FEFF 		bl	CYCONFIGCPY
 412:.\Generated_Source\PSoC5/cyfitter_cfg.c **** 	/* Switch Boost to the precision bandgap reference from its internal reference */
 413:.\Generated_Source\PSoC5/cyfitter_cfg.c **** 	CY_SET_REG8((void CYXDATA *)CYREG_BOOST_CR2, (CY_GET_REG8((void CYXDATA *)CYREG_BOOST_CR2) | 0x08u
 708              		.loc 1 413 0
 709 010e 204A     		ldr	r2, .L31+72
 710 0110 1F4B     		ldr	r3, .L31+72
 711 0112 1B78     		ldrb	r3, [r3]
 712 0114 DBB2     		uxtb	r3, r3
 713 0116 43F00803 		orr	r3, r3, #8
 714 011a DBB2     		uxtb	r3, r3
 715 011c 1370     		strb	r3, [r2]
 414:.\Generated_Source\PSoC5/cyfitter_cfg.c **** 
 415:.\Generated_Source\PSoC5/cyfitter_cfg.c **** 	/* Set Flash Cycles based on max possible frequency in case a glitch occurs during ClockSetup(). *
ARM GAS  C:\Users\Andrew\AppData\Local\Temp\cczttxnE.s 			page 21


 416:.\Generated_Source\PSoC5/cyfitter_cfg.c **** 	CY_SET_XTND_REG8((void CYFAR *)(CYREG_CACHE_CC_CTL), (((CYDEV_INSTRUCT_CACHE_ENABLED) != 0) ? 0x01
 716              		.loc 1 416 0
 717 011e 1D4B     		ldr	r3, .L31+76
 718 0120 0122     		movs	r2, #1
 719 0122 1A70     		strb	r2, [r3]
 417:.\Generated_Source\PSoC5/cyfitter_cfg.c **** 	/* Setup clocks based on selections from Clock DWR */
 418:.\Generated_Source\PSoC5/cyfitter_cfg.c **** 	ClockSetup();
 720              		.loc 1 418 0
 721 0124 FFF7FEFF 		bl	ClockSetup
 419:.\Generated_Source\PSoC5/cyfitter_cfg.c **** 	/* Set Flash Cycles based on newly configured 24.00MHz Bus Clock. */
 420:.\Generated_Source\PSoC5/cyfitter_cfg.c **** 	CY_SET_XTND_REG8((void CYFAR *)(CYREG_CACHE_CC_CTL), (((CYDEV_INSTRUCT_CACHE_ENABLED) != 0) ? 0x81
 722              		.loc 1 420 0
 723 0128 1A4B     		ldr	r3, .L31+76
 724 012a 8122     		movs	r2, #129
 725 012c 1A70     		strb	r2, [r3]
 421:.\Generated_Source\PSoC5/cyfitter_cfg.c **** 	CY_SET_XTND_REG8((void CYFAR *)(CYREG_PANTHER_WAITPIPE), 0x01u);
 726              		.loc 1 421 0
 727 012e 1A4B     		ldr	r3, .L31+80
 728 0130 0122     		movs	r2, #1
 729 0132 1A70     		strb	r2, [r3]
 422:.\Generated_Source\PSoC5/cyfitter_cfg.c **** 
 423:.\Generated_Source\PSoC5/cyfitter_cfg.c **** 	/* Perform basic analog initialization to defaults */
 424:.\Generated_Source\PSoC5/cyfitter_cfg.c **** 	AnalogSetDefault();
 730              		.loc 1 424 0
 731 0134 FFF7FEFF 		bl	AnalogSetDefault
 425:.\Generated_Source\PSoC5/cyfitter_cfg.c **** 
 426:.\Generated_Source\PSoC5/cyfitter_cfg.c **** 	/* Configure alternate active mode */
 427:.\Generated_Source\PSoC5/cyfitter_cfg.c **** 	CYCONFIGCPY((void CYFAR *)CYDEV_PM_STBY_BASE, (const void CYFAR *)CYDEV_PM_ACT_BASE, 14u);
 732              		.loc 1 427 0
 733 0138 1848     		ldr	r0, .L31+84
 734 013a 0949     		ldr	r1, .L31+24
 735 013c 0E22     		movs	r2, #14
 736 013e FFF7FEFF 		bl	CYCONFIGCPY
 428:.\Generated_Source\PSoC5/cyfitter_cfg.c **** }
 737              		.loc 1 428 0
 738 0142 1837     		adds	r7, r7, #24
 739              		.cfi_def_cfa_offset 8
 740 0144 BD46     		mov	sp, r7
 741              		.cfi_def_cfa_register 13
 742              		@ sp needed
 743 0146 80BD     		pop	{r7, pc}
 744              	.L32:
 745              		.align	2
 746              	.L31:
 747 0148 E8460040 		.word	1073759976
 748 014c 00000000 		.word	cfg_memset_list.4885
 749 0150 38000000 		.word	cfg_memcpy_list.4886
 750 0154 44000048 		.word	1207959620
 751 0158 03500140 		.word	1073827843
 752 015c 13500140 		.word	1073827859
 753 0160 A0430040 		.word	1073759136
 754 0164 C2430040 		.word	1073759170
 755 0168 02510040 		.word	1073762562
 756 016c 28030048 		.word	1207960360
 757 0170 C2510040 		.word	1073762754
 758 0174 30030048 		.word	1207960368
 759 0178 22510040 		.word	1073762594
ARM GAS  C:\Users\Andrew\AppData\Local\Temp\cczttxnE.s 			page 22


 760 017c 38030048 		.word	1207960376
 761 0180 32510040 		.word	1073762610
 762 0184 40030048 		.word	1207960384
 763 0188 60510040 		.word	1073762656
 764 018c 48030048 		.word	1207960392
 765 0190 22430040 		.word	1073759010
 766 0194 00480040 		.word	1073760256
 767 0198 04000840 		.word	1074266116
 768 019c B0430040 		.word	1073759152
 769              		.cfi_endproc
 770              	.LFE8:
 771              		.size	cyfitter_cfg, .-cyfitter_cfg
 772              		.section	.rodata
 773              		.align	2
 774              		.type	cfg_memset_list.4885, %object
 775              		.size	cfg_memset_list.4885, 54
 776              	cfg_memset_list.4885:
 777 0000 10510040 		.word	1073762576
 778 0004 1000     		.short	16
 779 0006 40510040 		.4byte	1073762624
 780 000a 2000     		.short	32
 781 000c F0510040 		.word	1073762800
 782 0010 1000     		.short	16
 783 0012 00000140 		.4byte	1073807360
 784 0016 000C     		.short	3072
 785 0018 800C0140 		.word	1073810560
 786 001c 8003     		.short	896
 787 001e 00140140 		.4byte	1073812480
 788 0022 0008     		.short	2048
 789 0024 00400140 		.word	1073823744
 790 0028 000A     		.short	2560
 791 002a 004C0140 		.4byte	1073826816
 792 002e 0002     		.short	512
 793 0030 00500140 		.word	1073827840
 794 0034 2000     		.short	32
 795 0036 0000     		.align	2
 796              		.type	cfg_memcpy_list.4886, %object
 797              		.size	cfg_memcpy_list.4886, 10
 798              	cfg_memcpy_list.4886:
 799 0038 000C0140 		.word	1073810432
 800 003c A8020048 		.word	1207960232
 801 0040 8000     		.short	128
 802 0042 0000     		.text
 803              	.Letext0:
 804              		.file 2 "c:\\program files (x86)\\cypress\\psoc creator\\3.3\\psoc creator\\import\\gnu\\arm\\4.9.
 805              		.file 3 ".\\Generated_Source\\PSoC5\\cytypes.h"