ARM GAS  C:\Users\Andrew\AppData\Local\Temp\ccBvbRAh.s 			page 1


   1              		.syntax unified
   2              		.cpu cortex-m3
   3              		.fpu softvfp
   4              		.eabi_attribute 20, 1
   5              		.eabi_attribute 21, 1
   6              		.eabi_attribute 23, 3
   7              		.eabi_attribute 24, 1
   8              		.eabi_attribute 25, 1
   9              		.eabi_attribute 26, 1
  10              		.eabi_attribute 30, 6
  11              		.eabi_attribute 34, 1
  12              		.eabi_attribute 18, 4
  13              		.thumb
  14              		.file	"main.c"
  15              		.text
  16              	.Ltext0:
  17              		.cfi_sections	.debug_frame
  18              		.section	.text.main,"ax",%progbits
  19              		.align	2
  20              		.global	main
  21              		.thumb
  22              		.thumb_func
  23              		.type	main, %function
  24              	main:
  25              	.LFB63:
  26              		.file 1 ".\\main.c"
   1:.\main.c      **** /* ========================================
   2:.\main.c      ****  *
   3:.\main.c      ****  * Copyright Andrew MIT 6.115, 2016
   4:.\main.c      ****  * All Rights Reserved
   5:.\main.c      ****  * UNPUBLISHED, LICENSED SOFTWARE.
   6:.\main.c      ****  *
   7:.\main.c      ****  * CONFIDENTIAL AND PROPRIETARY INFORMATION
   8:.\main.c      ****  * WHICH IS THE PROPERTY OF MIT 6.115.
   9:.\main.c      ****  *
  10:.\main.c      ****  * This file is necessary for your project to build.
  11:.\main.c      ****  * Please do not delete it.
  12:.\main.c      ****  *
  13:.\main.c      ****  * ========================================
  14:.\main.c      **** */
  15:.\main.c      **** 
  16:.\main.c      **** #include <device.h>
  17:.\main.c      **** #include <unistd.h>
  18:.\main.c      **** 
  19:.\main.c      **** // files I made
  20:.\main.c      **** #include <disp.h>
  21:.\main.c      **** #include <tic_tac_all.h>
  22:.\main.c      **** #include <8051_read.h>
  23:.\main.c      **** 
  24:.\main.c      **** //methods in main
  25:.\main.c      **** void main_play_ttc(); //the two player one
  26:.\main.c      **** void main_play_tta_ai(); //ai vs ai
  27:.\main.c      **** void main_test_disp(); // just test the databus
  28:.\main.c      **** 
  29:.\main.c      **** void main_flashing_tta();
  30:.\main.c      **** 
  31:.\main.c      **** void main()
ARM GAS  C:\Users\Andrew\AppData\Local\Temp\ccBvbRAh.s 			page 2


  32:.\main.c      **** {	    
  27              		.loc 1 32 0
  28              		.cfi_startproc
  29              		@ args = 0, pretend = 0, frame = 0
  30              		@ frame_needed = 1, uses_anonymous_args = 0
  31 0000 80B5     		push	{r7, lr}
  32              		.cfi_def_cfa_offset 8
  33              		.cfi_offset 7, -8
  34              		.cfi_offset 14, -4
  35 0002 00AF     		add	r7, sp, #0
  36              		.cfi_def_cfa_register 7
  33:.\main.c      ****     
  34:.\main.c      ****     //main_play_ttc() ; // take out inverter and connection to 7430, run keypad with cap
  35:.\main.c      ****     //main_play_tta_ai(); // take out inverter, run keypad with cap
  36:.\main.c      ****     //main_test_disp();
  37:.\main.c      ****     main_flashing_tta();
  37              		.loc 1 37 0
  38 0004 FFF7FEFF 		bl	main_flashing_tta
  39              	.L2:
  38:.\main.c      ****     
  39:.\main.c      ****     
  40:.\main.c      ****     
  41:.\main.c      ****     for(;;){} //pause
  40              		.loc 1 41 0 discriminator 1
  41 0008 FEE7     		b	.L2
  42              		.cfi_endproc
  43              	.LFE63:
  44              		.size	main, .-main
  45 000a 00BF     		.section	.rodata
  46              		.align	2
  47              	.LC0:
  48 0000 50303A20 		.ascii	"P0: \000"
  48      00
  49 0005 000000   		.align	2
  50              	.LC1:
  51 0008 47414D45 		.ascii	"GAME OVER!\000"
  51      204F5645 
  51      522100
  52              		.section	.text.main_flashing_tta,"ax",%progbits
  53              		.align	2
  54              		.global	main_flashing_tta
  55              		.thumb
  56              		.thumb_func
  57              		.type	main_flashing_tta, %function
  58              	main_flashing_tta:
  59              	.LFB64:
  42:.\main.c      **** }
  43:.\main.c      **** 
  44:.\main.c      **** void main_flashing_tta(){
  60              		.loc 1 44 0
  61              		.cfi_startproc
  62              		@ args = 0, pretend = 0, frame = 2200
  63              		@ frame_needed = 1, uses_anonymous_args = 0
  64 0000 80B5     		push	{r7, lr}
  65              		.cfi_def_cfa_offset 8
  66              		.cfi_offset 7, -8
  67              		.cfi_offset 14, -4
ARM GAS  C:\Users\Andrew\AppData\Local\Temp\ccBvbRAh.s 			page 3


  68 0002 ADF50A6D 		sub	sp, sp, #2208
  69              		.cfi_def_cfa_offset 2216
  70 0006 02AF     		add	r7, sp, #8
  71              		.cfi_def_cfa 7, 2208
  45:.\main.c      ****     // this is the function compatible with the cap sensor input
  46:.\main.c      ****     LCD_Start();					    // initialize lcd
  72              		.loc 1 46 0
  73 0008 FFF7FEFF 		bl	LCD_Start
  47:.\main.c      ****     LCD_ClearDisplay();
  74              		.loc 1 47 0
  75 000c 0120     		movs	r0, #1
  76 000e FFF7FEFF 		bl	LCD_WriteControl
  48:.\main.c      ****     UART_Start();                       // initialize UART
  77              		.loc 1 48 0
  78 0012 FFF7FEFF 		bl	UART_Start
  49:.\main.c      ****     UART_PutChar(0x81); // init connection; set to 16x12 image 
  79              		.loc 1 49 0
  80 0016 8120     		movs	r0, #129
  81 0018 FFF7FEFF 		bl	UART_PutChar
  50:.\main.c      ****     
  51:.\main.c      ****     struct disp_grid_81 disp; 
  52:.\main.c      ****     disp_grid_init(&disp,0x3F); // init our display grid matrix to white  
  82              		.loc 1 52 0
  83 001c 07F28453 		addw	r3, r7, #1412
  84 0020 1846     		mov	r0, r3
  85 0022 3F21     		movs	r1, #63
  86 0024 FFF7FEFF 		bl	disp_grid_init
  53:.\main.c      ****     disp_grid_transmit(&disp);
  87              		.loc 1 53 0
  88 0028 07F28453 		addw	r3, r7, #1412
  89 002c 1846     		mov	r0, r3
  90 002e FFF7FEFF 		bl	disp_grid_transmit
  54:.\main.c      ****     
  55:.\main.c      ****     struct tic_tac_ai tta;
  56:.\main.c      ****     tta_init(&tta,4,3,false,true); //first bool for player 1, second bool for player 2. true means 
  91              		.loc 1 56 0
  92 0032 3A46     		mov	r2, r7
  93 0034 0123     		movs	r3, #1
  94 0036 0093     		str	r3, [sp]
  95 0038 1046     		mov	r0, r2
  96 003a 0421     		movs	r1, #4
  97 003c 0322     		movs	r2, #3
  98 003e 0023     		movs	r3, #0
  99 0040 FFF7FEFF 		bl	tta_init
  57:.\main.c      ****     disp_grid_init_ttc(&disp, tta.game.grid);
 100              		.loc 1 57 0
 101 0044 07F28452 		addw	r2, r7, #1412
 102 0048 3B46     		mov	r3, r7
 103 004a 03F28443 		addw	r3, r3, #1156
 104 004e 1046     		mov	r0, r2
 105 0050 1946     		mov	r1, r3
 106 0052 FFF7FEFF 		bl	disp_grid_init_ttc
  58:.\main.c      ****     disp_grid_draw_xia(&disp,26,16,0x30); // draw xia
 107              		.loc 1 58 0
 108 0056 07F28453 		addw	r3, r7, #1412
 109 005a 1846     		mov	r0, r3
 110 005c 1A21     		movs	r1, #26
ARM GAS  C:\Users\Andrew\AppData\Local\Temp\ccBvbRAh.s 			page 4


 111 005e 1022     		movs	r2, #16
 112 0060 3023     		movs	r3, #48
 113 0062 FFF7FEFF 		bl	disp_grid_draw_xia
  59:.\main.c      ****     disp_grid_transmit(&disp);
 114              		.loc 1 59 0
 115 0066 07F28453 		addw	r3, r7, #1412
 116 006a 1846     		mov	r0, r3
 117 006c FFF7FEFF 		bl	disp_grid_transmit
  60:.\main.c      ****     
  61:.\main.c      ****     int x,y,z, count; uint8 Values; uint8 Values_prev;
  62:.\main.c      ****     Values_prev = Pin0_Read();
 118              		.loc 1 62 0
 119 0070 FFF7FEFF 		bl	Pin0_Read
 120 0074 0346     		mov	r3, r0
 121 0076 87F88738 		strb	r3, [r7, #2183]
  63:.\main.c      ****     x = 0; y = 0; z = 0; //test value
 122              		.loc 1 63 0
 123 007a 0023     		movs	r3, #0
 124 007c C7F89438 		str	r3, [r7, #2196]
 125 0080 0023     		movs	r3, #0
 126 0082 C7F89038 		str	r3, [r7, #2192]
 127 0086 0023     		movs	r3, #0
 128 0088 C7F88C38 		str	r3, [r7, #2188]
  64:.\main.c      ****     count = 0;
 129              		.loc 1 64 0
 130 008c 0023     		movs	r3, #0
 131 008e C7F88838 		str	r3, [r7, #2184]
  65:.\main.c      ****     
  66:.\main.c      ****     uint8 red_flash; //the temporary location flasher
  67:.\main.c      ****     uint8 other_val;
  68:.\main.c      ****     other_val = disp_grid_ttc_getval(&disp,z*16 + y*4 + x); // get the nonred val
 132              		.loc 1 68 0
 133 0092 D7F88C38 		ldr	r3, [r7, #2188]
 134 0096 9A00     		lsls	r2, r3, #2
 135 0098 D7F89038 		ldr	r3, [r7, #2192]
 136 009c 1344     		add	r3, r3, r2
 137 009e 9A00     		lsls	r2, r3, #2
 138 00a0 D7F89438 		ldr	r3, [r7, #2196]
 139 00a4 1344     		add	r3, r3, r2
 140 00a6 07F28452 		addw	r2, r7, #1412
 141 00aa 1046     		mov	r0, r2
 142 00ac 1946     		mov	r1, r3
 143 00ae FFF7FEFF 		bl	disp_grid_ttc_getval
 144 00b2 0346     		mov	r3, r0
 145 00b4 87F88638 		strb	r3, [r7, #2182]
  69:.\main.c      ****     red_flash = 0x30; //map to color red
 146              		.loc 1 69 0
 147 00b8 3023     		movs	r3, #48
 148 00ba 87F88538 		strb	r3, [r7, #2181]
  70:.\main.c      ****     
  71:.\main.c      ****     tta_step(&disp,&tta,x,y,z); //AI Increment also 
 149              		.loc 1 71 0
 150 00be 07F28451 		addw	r1, r7, #1412
 151 00c2 3A46     		mov	r2, r7
 152 00c4 D7F88C38 		ldr	r3, [r7, #2188]
 153 00c8 0093     		str	r3, [sp]
 154 00ca 0846     		mov	r0, r1
ARM GAS  C:\Users\Andrew\AppData\Local\Temp\ccBvbRAh.s 			page 5


 155 00cc 1146     		mov	r1, r2
 156 00ce D7F89428 		ldr	r2, [r7, #2196]
 157 00d2 D7F89038 		ldr	r3, [r7, #2192]
 158 00d6 FFF7FEFF 		bl	tta_step
  72:.\main.c      ****     
  73:.\main.c      ****     while (tta.game.game_not_won == 0){
 159              		.loc 1 73 0
 160 00da 00E1     		b	.L4
 161              	.L15:
  74:.\main.c      **** //        Values = read_from_8255(Values); //read and print
  75:.\main.c      ****         
  76:.\main.c      ****         LCD_ClearDisplay();
 162              		.loc 1 76 0
 163 00dc 0120     		movs	r0, #1
 164 00de FFF7FEFF 		bl	LCD_WriteControl
  77:.\main.c      ****         
  78:.\main.c      ****         LCD_Position(0,0); //move back to top row
 165              		.loc 1 78 0
 166 00e2 0020     		movs	r0, #0
 167 00e4 0021     		movs	r1, #0
 168 00e6 FFF7FEFF 		bl	LCD_Position
  79:.\main.c      ****         Values = Pin0_Read(); //next, read a new value
 169              		.loc 1 79 0
 170 00ea FFF7FEFF 		bl	Pin0_Read
 171 00ee 0346     		mov	r3, r0
 172 00f0 87F88438 		strb	r3, [r7, #2180]
  80:.\main.c      ****         LCD_PrintString("P0: ");
 173              		.loc 1 80 0
 174 00f4 8248     		ldr	r0, .L16
 175 00f6 FFF7FEFF 		bl	LCD_PrintString
  81:.\main.c      ****         LCD_PrintNumber(Values); //print value I am getting
 176              		.loc 1 81 0
 177 00fa 97F88438 		ldrb	r3, [r7, #2180]	@ zero_extendqisi2
 178 00fe 1846     		mov	r0, r3
 179 0100 FFF7FEFF 		bl	LCD_PrintU32Number
  82:.\main.c      ****         
  83:.\main.c      ****         if (Values != Values_prev){
 180              		.loc 1 83 0
 181 0104 97F88428 		ldrb	r2, [r7, #2180]	@ zero_extendqisi2
 182 0108 97F88738 		ldrb	r3, [r7, #2183]	@ zero_extendqisi2
 183 010c 9A42     		cmp	r2, r3
 184 010e 00F0B080 		beq	.L5
  84:.\main.c      ****             Values_prev = Values; //we don't want nonconsect
 185              		.loc 1 84 0
 186 0112 97F88438 		ldrb	r3, [r7, #2180]
 187 0116 87F88738 		strb	r3, [r7, #2183]
  85:.\main.c      ****             if (Values != 0){
 188              		.loc 1 85 0
 189 011a 97F88438 		ldrb	r3, [r7, #2180]	@ zero_extendqisi2
 190 011e 002B     		cmp	r3, #0
 191 0120 00F0A780 		beq	.L5
  86:.\main.c      ****                 if (Values == 32){
 192              		.loc 1 86 0
 193 0124 97F88438 		ldrb	r3, [r7, #2180]	@ zero_extendqisi2
 194 0128 202B     		cmp	r3, #32
 195 012a 2FD1     		bne	.L6
  87:.\main.c      ****                     tta_step(&disp,&tta,x,y,z); //increment a turn
ARM GAS  C:\Users\Andrew\AppData\Local\Temp\ccBvbRAh.s 			page 6


 196              		.loc 1 87 0
 197 012c 07F28451 		addw	r1, r7, #1412
 198 0130 3A46     		mov	r2, r7
 199 0132 D7F88C38 		ldr	r3, [r7, #2188]
 200 0136 0093     		str	r3, [sp]
 201 0138 0846     		mov	r0, r1
 202 013a 1146     		mov	r1, r2
 203 013c D7F89428 		ldr	r2, [r7, #2196]
 204 0140 D7F89038 		ldr	r3, [r7, #2192]
 205 0144 FFF7FEFF 		bl	tta_step
  88:.\main.c      ****                     tta_step(&disp,&tta,x,y,z); //AI Increment also 
 206              		.loc 1 88 0
 207 0148 07F28451 		addw	r1, r7, #1412
 208 014c 3A46     		mov	r2, r7
 209 014e D7F88C38 		ldr	r3, [r7, #2188]
 210 0152 0093     		str	r3, [sp]
 211 0154 0846     		mov	r0, r1
 212 0156 1146     		mov	r1, r2
 213 0158 D7F89428 		ldr	r2, [r7, #2196]
 214 015c D7F89038 		ldr	r3, [r7, #2192]
 215 0160 FFF7FEFF 		bl	tta_step
  89:.\main.c      ****                     other_val = disp_grid_ttc_getval(&disp,z*16 + y*4 + x); // get the nonred val
 216              		.loc 1 89 0
 217 0164 D7F88C38 		ldr	r3, [r7, #2188]
 218 0168 9A00     		lsls	r2, r3, #2
 219 016a D7F89038 		ldr	r3, [r7, #2192]
 220 016e 1344     		add	r3, r3, r2
 221 0170 9A00     		lsls	r2, r3, #2
 222 0172 D7F89438 		ldr	r3, [r7, #2196]
 223 0176 1344     		add	r3, r3, r2
 224 0178 07F28452 		addw	r2, r7, #1412
 225 017c 1046     		mov	r0, r2
 226 017e 1946     		mov	r1, r3
 227 0180 FFF7FEFF 		bl	disp_grid_ttc_getval
 228 0184 0346     		mov	r3, r0
 229 0186 87F88638 		strb	r3, [r7, #2182]
 230 018a 72E0     		b	.L5
 231              	.L6:
  90:.\main.c      ****                 }
  91:.\main.c      ****                 else{
  92:.\main.c      ****                     disp_grid_ttc_place_value(&disp,z*16 + y*4 + x,other_val);
 232              		.loc 1 92 0
 233 018c D7F88C38 		ldr	r3, [r7, #2188]
 234 0190 9A00     		lsls	r2, r3, #2
 235 0192 D7F89038 		ldr	r3, [r7, #2192]
 236 0196 1344     		add	r3, r3, r2
 237 0198 9A00     		lsls	r2, r3, #2
 238 019a D7F89438 		ldr	r3, [r7, #2196]
 239 019e 1A44     		add	r2, r2, r3
 240 01a0 07F28451 		addw	r1, r7, #1412
 241 01a4 97F88638 		ldrb	r3, [r7, #2182]	@ zero_extendqisi2
 242 01a8 0846     		mov	r0, r1
 243 01aa 1146     		mov	r1, r2
 244 01ac 1A46     		mov	r2, r3
 245 01ae FFF7FEFF 		bl	disp_grid_ttc_place_value
  93:.\main.c      ****                     if (Values == 16 && y != 0){ // up
 246              		.loc 1 93 0
ARM GAS  C:\Users\Andrew\AppData\Local\Temp\ccBvbRAh.s 			page 7


 247 01b2 97F88438 		ldrb	r3, [r7, #2180]	@ zero_extendqisi2
 248 01b6 102B     		cmp	r3, #16
 249 01b8 09D1     		bne	.L7
 250              		.loc 1 93 0 is_stmt 0 discriminator 1
 251 01ba D7F89038 		ldr	r3, [r7, #2192]
 252 01be 002B     		cmp	r3, #0
 253 01c0 05D0     		beq	.L7
  94:.\main.c      ****                     y--;
 254              		.loc 1 94 0 is_stmt 1
 255 01c2 D7F89038 		ldr	r3, [r7, #2192]
 256 01c6 013B     		subs	r3, r3, #1
 257 01c8 C7F89038 		str	r3, [r7, #2192]
 258 01cc 3EE0     		b	.L8
 259              	.L7:
  95:.\main.c      ****                     }
  96:.\main.c      ****                     else if (Values == 8 && y != 3){ // down
 260              		.loc 1 96 0
 261 01ce 97F88438 		ldrb	r3, [r7, #2180]	@ zero_extendqisi2
 262 01d2 082B     		cmp	r3, #8
 263 01d4 09D1     		bne	.L9
 264              		.loc 1 96 0 is_stmt 0 discriminator 1
 265 01d6 D7F89038 		ldr	r3, [r7, #2192]
 266 01da 032B     		cmp	r3, #3
 267 01dc 05D0     		beq	.L9
  97:.\main.c      ****                         y++;
 268              		.loc 1 97 0 is_stmt 1
 269 01de D7F89038 		ldr	r3, [r7, #2192]
 270 01e2 0133     		adds	r3, r3, #1
 271 01e4 C7F89038 		str	r3, [r7, #2192]
 272 01e8 30E0     		b	.L8
 273              	.L9:
  98:.\main.c      ****                     }
  99:.\main.c      ****                     else if (Values == 4 && x != 0){ // left
 274              		.loc 1 99 0
 275 01ea 97F88438 		ldrb	r3, [r7, #2180]	@ zero_extendqisi2
 276 01ee 042B     		cmp	r3, #4
 277 01f0 09D1     		bne	.L10
 278              		.loc 1 99 0 is_stmt 0 discriminator 1
 279 01f2 D7F89438 		ldr	r3, [r7, #2196]
 280 01f6 002B     		cmp	r3, #0
 281 01f8 05D0     		beq	.L10
 100:.\main.c      ****                         x--;
 282              		.loc 1 100 0 is_stmt 1
 283 01fa D7F89438 		ldr	r3, [r7, #2196]
 284 01fe 013B     		subs	r3, r3, #1
 285 0200 C7F89438 		str	r3, [r7, #2196]
 286 0204 22E0     		b	.L8
 287              	.L10:
 101:.\main.c      ****                     }
 102:.\main.c      ****                     else if (Values == 2 && x != 3){ // right
 288              		.loc 1 102 0
 289 0206 97F88438 		ldrb	r3, [r7, #2180]	@ zero_extendqisi2
 290 020a 022B     		cmp	r3, #2
 291 020c 09D1     		bne	.L11
 292              		.loc 1 102 0 is_stmt 0 discriminator 1
 293 020e D7F89438 		ldr	r3, [r7, #2196]
 294 0212 032B     		cmp	r3, #3
ARM GAS  C:\Users\Andrew\AppData\Local\Temp\ccBvbRAh.s 			page 8


 295 0214 05D0     		beq	.L11
 103:.\main.c      ****                         x++;
 296              		.loc 1 103 0 is_stmt 1
 297 0216 D7F89438 		ldr	r3, [r7, #2196]
 298 021a 0133     		adds	r3, r3, #1
 299 021c C7F89438 		str	r3, [r7, #2196]
 300 0220 14E0     		b	.L8
 301              	.L11:
 104:.\main.c      ****                     }
 105:.\main.c      ****                     else if (Values == 1){ // level shift
 302              		.loc 1 105 0
 303 0222 97F88438 		ldrb	r3, [r7, #2180]	@ zero_extendqisi2
 304 0226 012B     		cmp	r3, #1
 305 0228 10D1     		bne	.L8
 106:.\main.c      ****                         z++;
 306              		.loc 1 106 0
 307 022a D7F88C38 		ldr	r3, [r7, #2188]
 308 022e 0133     		adds	r3, r3, #1
 309 0230 C7F88C38 		str	r3, [r7, #2188]
 107:.\main.c      ****                         z = z % 4;
 310              		.loc 1 107 0
 311 0234 D7F88C28 		ldr	r2, [r7, #2188]
 312 0238 324B     		ldr	r3, .L16+4
 313 023a 1340     		ands	r3, r3, r2
 314 023c 002B     		cmp	r3, #0
 315 023e 03DA     		bge	.L12
 316 0240 013B     		subs	r3, r3, #1
 317 0242 63F00303 		orn	r3, r3, #3
 318 0246 0133     		adds	r3, r3, #1
 319              	.L12:
 320 0248 C7F88C38 		str	r3, [r7, #2188]
 321              	.L8:
 108:.\main.c      ****                     }
 109:.\main.c      ****                     other_val = disp_grid_ttc_getval(&disp,z*16 + y*4 + x); // get the nonred val
 322              		.loc 1 109 0
 323 024c D7F88C38 		ldr	r3, [r7, #2188]
 324 0250 9A00     		lsls	r2, r3, #2
 325 0252 D7F89038 		ldr	r3, [r7, #2192]
 326 0256 1344     		add	r3, r3, r2
 327 0258 9A00     		lsls	r2, r3, #2
 328 025a D7F89438 		ldr	r3, [r7, #2196]
 329 025e 1344     		add	r3, r3, r2
 330 0260 07F28452 		addw	r2, r7, #1412
 331 0264 1046     		mov	r0, r2
 332 0266 1946     		mov	r1, r3
 333 0268 FFF7FEFF 		bl	disp_grid_ttc_getval
 334 026c 0346     		mov	r3, r0
 335 026e 87F88638 		strb	r3, [r7, #2182]
 336              	.L5:
 110:.\main.c      ****                 }
 111:.\main.c      ****             }
 112:.\main.c      ****         }
 113:.\main.c      ****         
 114:.\main.c      ****         if (count == 0){ //decide print
 337              		.loc 1 114 0
 338 0272 D7F88838 		ldr	r3, [r7, #2184]
 339 0276 002B     		cmp	r3, #0
ARM GAS  C:\Users\Andrew\AppData\Local\Temp\ccBvbRAh.s 			page 9


 340 0278 16D1     		bne	.L13
 115:.\main.c      ****             count = 1;
 341              		.loc 1 115 0
 342 027a 0123     		movs	r3, #1
 343 027c C7F88838 		str	r3, [r7, #2184]
 116:.\main.c      ****             disp_grid_ttc_place_value(&disp,z*16 + y*4 + x,red_flash);
 344              		.loc 1 116 0
 345 0280 D7F88C38 		ldr	r3, [r7, #2188]
 346 0284 9A00     		lsls	r2, r3, #2
 347 0286 D7F89038 		ldr	r3, [r7, #2192]
 348 028a 1344     		add	r3, r3, r2
 349 028c 9A00     		lsls	r2, r3, #2
 350 028e D7F89438 		ldr	r3, [r7, #2196]
 351 0292 1A44     		add	r2, r2, r3
 352 0294 07F28451 		addw	r1, r7, #1412
 353 0298 97F88538 		ldrb	r3, [r7, #2181]	@ zero_extendqisi2
 354 029c 0846     		mov	r0, r1
 355 029e 1146     		mov	r1, r2
 356 02a0 1A46     		mov	r2, r3
 357 02a2 FFF7FEFF 		bl	disp_grid_ttc_place_value
 358 02a6 15E0     		b	.L14
 359              	.L13:
 117:.\main.c      ****         }
 118:.\main.c      ****         else{
 119:.\main.c      ****             count = 0;
 360              		.loc 1 119 0
 361 02a8 0023     		movs	r3, #0
 362 02aa C7F88838 		str	r3, [r7, #2184]
 120:.\main.c      ****             disp_grid_ttc_place_value(&disp,z*16 + y*4 + x,other_val);
 363              		.loc 1 120 0
 364 02ae D7F88C38 		ldr	r3, [r7, #2188]
 365 02b2 9A00     		lsls	r2, r3, #2
 366 02b4 D7F89038 		ldr	r3, [r7, #2192]
 367 02b8 1344     		add	r3, r3, r2
 368 02ba 9A00     		lsls	r2, r3, #2
 369 02bc D7F89438 		ldr	r3, [r7, #2196]
 370 02c0 1A44     		add	r2, r2, r3
 371 02c2 07F28451 		addw	r1, r7, #1412
 372 02c6 97F88638 		ldrb	r3, [r7, #2182]	@ zero_extendqisi2
 373 02ca 0846     		mov	r0, r1
 374 02cc 1146     		mov	r1, r2
 375 02ce 1A46     		mov	r2, r3
 376 02d0 FFF7FEFF 		bl	disp_grid_ttc_place_value
 377              	.L14:
 121:.\main.c      ****         }
 122:.\main.c      ****         disp_grid_transmit(&disp);
 378              		.loc 1 122 0
 379 02d4 07F28453 		addw	r3, r7, #1412
 380 02d8 1846     		mov	r0, r3
 381 02da FFF7FEFF 		bl	disp_grid_transmit
 382              	.L4:
  73:.\main.c      **** //        Values = read_from_8255(Values); //read and print
 383              		.loc 1 73 0
 384 02de 3B46     		mov	r3, r7
 385 02e0 D3F88034 		ldr	r3, [r3, #1152]
 386 02e4 002B     		cmp	r3, #0
 387 02e6 3FF4F9AE 		beq	.L15
ARM GAS  C:\Users\Andrew\AppData\Local\Temp\ccBvbRAh.s 			page 10


 123:.\main.c      ****     }
 124:.\main.c      ****     LCD_ClearDisplay();
 388              		.loc 1 124 0
 389 02ea 0120     		movs	r0, #1
 390 02ec FFF7FEFF 		bl	LCD_WriteControl
 125:.\main.c      ****     LCD_PrintString("GAME OVER!");   
 391              		.loc 1 125 0
 392 02f0 0548     		ldr	r0, .L16+8
 393 02f2 FFF7FEFF 		bl	LCD_PrintString
 126:.\main.c      ****     
 127:.\main.c      **** }
 394              		.loc 1 127 0
 395 02f6 07F69807 		addw	r7, r7, #2200
 396              		.cfi_def_cfa_offset 8
 397 02fa BD46     		mov	sp, r7
 398              		.cfi_def_cfa_register 13
 399              		@ sp needed
 400 02fc 80BD     		pop	{r7, pc}
 401              	.L17:
 402 02fe 00BF     		.align	2
 403              	.L16:
 404 0300 00000000 		.word	.LC0
 405 0304 03000080 		.word	-2147483645
 406 0308 08000000 		.word	.LC1
 407              		.cfi_endproc
 408              	.LFE64:
 409              		.size	main_flashing_tta, .-main_flashing_tta
 410              		.section	.rodata
 411 0013 00       		.align	2
 412              	.LC2:
 413 0014 50333A20 		.ascii	"P3: \000"
 413      00
 414 0019 000000   		.align	2
 415              	.LC3:
 416 001c 20484558 		.ascii	" HEX: \000"
 416      3A2000
 417              		.section	.text.main_test_disp,"ax",%progbits
 418              		.align	2
 419              		.global	main_test_disp
 420              		.thumb
 421              		.thumb_func
 422              		.type	main_test_disp, %function
 423              	main_test_disp:
 424              	.LFB65:
 128:.\main.c      **** 
 129:.\main.c      **** void main_test_disp(){
 425              		.loc 1 129 0
 426              		.cfi_startproc
 427              		@ args = 0, pretend = 0, frame = 8
 428              		@ frame_needed = 1, uses_anonymous_args = 0
 429 0000 80B5     		push	{r7, lr}
 430              		.cfi_def_cfa_offset 8
 431              		.cfi_offset 7, -8
 432              		.cfi_offset 14, -4
 433 0002 82B0     		sub	sp, sp, #8
 434              		.cfi_def_cfa_offset 16
 435 0004 00AF     		add	r7, sp, #0
ARM GAS  C:\Users\Andrew\AppData\Local\Temp\ccBvbRAh.s 			page 11


 436              		.cfi_def_cfa_register 7
 130:.\main.c      ****     LCD_Start();					    // initialize lcd
 437              		.loc 1 130 0
 438 0006 FFF7FEFF 		bl	LCD_Start
 439              	.L19:
 131:.\main.c      ****     uint8 current;
 132:.\main.c      ****     for (;;){
 133:.\main.c      ****         LCD_ClearDisplay();
 440              		.loc 1 133 0 discriminator 1
 441 000a 0120     		movs	r0, #1
 442 000c FFF7FEFF 		bl	LCD_WriteControl
 134:.\main.c      ****         
 135:.\main.c      ****         LCD_Position(0,0); //move back to top row
 443              		.loc 1 135 0 discriminator 1
 444 0010 0020     		movs	r0, #0
 445 0012 0021     		movs	r1, #0
 446 0014 FFF7FEFF 		bl	LCD_Position
 136:.\main.c      ****         current = Pin0_Read(); //next, read a new value
 447              		.loc 1 136 0 discriminator 1
 448 0018 FFF7FEFF 		bl	Pin0_Read
 449 001c 0346     		mov	r3, r0
 450 001e FB71     		strb	r3, [r7, #7]
 137:.\main.c      ****         LCD_PrintString("P0: ");
 451              		.loc 1 137 0 discriminator 1
 452 0020 1048     		ldr	r0, .L20
 453 0022 FFF7FEFF 		bl	LCD_PrintString
 138:.\main.c      ****         LCD_PrintNumber(current); //print value I am getting
 454              		.loc 1 138 0 discriminator 1
 455 0026 FB79     		ldrb	r3, [r7, #7]	@ zero_extendqisi2
 456 0028 1846     		mov	r0, r3
 457 002a FFF7FEFF 		bl	LCD_PrintU32Number
 139:.\main.c      ****         
 140:.\main.c      ****         LCD_Position(1,0); //move to bot row
 458              		.loc 1 140 0 discriminator 1
 459 002e 0120     		movs	r0, #1
 460 0030 0021     		movs	r1, #0
 461 0032 FFF7FEFF 		bl	LCD_Position
 141:.\main.c      ****         current = Pin3_Read(); //next, read a new value
 462              		.loc 1 141 0 discriminator 1
 463 0036 FFF7FEFF 		bl	Pin3_Read
 464 003a 0346     		mov	r3, r0
 465 003c FB71     		strb	r3, [r7, #7]
 142:.\main.c      ****         LCD_PrintString("P3: ");
 466              		.loc 1 142 0 discriminator 1
 467 003e 0A48     		ldr	r0, .L20+4
 468 0040 FFF7FEFF 		bl	LCD_PrintString
 143:.\main.c      ****         LCD_PutChar(current); //print ascii value
 469              		.loc 1 143 0 discriminator 1
 470 0044 FB79     		ldrb	r3, [r7, #7]	@ zero_extendqisi2
 471 0046 1846     		mov	r0, r3
 472 0048 FFF7FEFF 		bl	LCD_PutChar
 144:.\main.c      ****         LCD_PrintString(" HEX: ");
 473              		.loc 1 144 0 discriminator 1
 474 004c 0748     		ldr	r0, .L20+8
 475 004e FFF7FEFF 		bl	LCD_PrintString
 145:.\main.c      ****         LCD_PrintNumber(current); //print value I am getting
 476              		.loc 1 145 0 discriminator 1
ARM GAS  C:\Users\Andrew\AppData\Local\Temp\ccBvbRAh.s 			page 12


 477 0052 FB79     		ldrb	r3, [r7, #7]	@ zero_extendqisi2
 478 0054 1846     		mov	r0, r3
 479 0056 FFF7FEFF 		bl	LCD_PrintU32Number
 146:.\main.c      ****         
 147:.\main.c      ****         waiter(4);
 480              		.loc 1 147 0 discriminator 1
 481 005a 0420     		movs	r0, #4
 482 005c FFF7FEFF 		bl	waiter
 148:.\main.c      ****     }
 483              		.loc 1 148 0 discriminator 1
 484 0060 D3E7     		b	.L19
 485              	.L21:
 486 0062 00BF     		.align	2
 487              	.L20:
 488 0064 00000000 		.word	.LC0
 489 0068 14000000 		.word	.LC2
 490 006c 1C000000 		.word	.LC3
 491              		.cfi_endproc
 492              	.LFE65:
 493              		.size	main_test_disp, .-main_test_disp
 494              		.section	.text.main_play_tta_ai,"ax",%progbits
 495              		.align	2
 496              		.global	main_play_tta_ai
 497              		.thumb
 498              		.thumb_func
 499              		.type	main_play_tta_ai, %function
 500              	main_play_tta_ai:
 501              	.LFB66:
 149:.\main.c      **** }
 150:.\main.c      **** 
 151:.\main.c      **** void main_play_tta_ai(){
 502              		.loc 1 151 0
 503              		.cfi_startproc
 504              		@ args = 0, pretend = 0, frame = 2200
 505              		@ frame_needed = 1, uses_anonymous_args = 0
 506 0000 80B5     		push	{r7, lr}
 507              		.cfi_def_cfa_offset 8
 508              		.cfi_offset 7, -8
 509              		.cfi_offset 14, -4
 510 0002 ADF50A6D 		sub	sp, sp, #2208
 511              		.cfi_def_cfa_offset 2216
 512 0006 02AF     		add	r7, sp, #8
 513              		.cfi_def_cfa 7, 2208
 152:.\main.c      ****     LCD_Start();					    // initialize lcd
 514              		.loc 1 152 0
 515 0008 FFF7FEFF 		bl	LCD_Start
 153:.\main.c      ****     LCD_ClearDisplay();
 516              		.loc 1 153 0
 517 000c 0120     		movs	r0, #1
 518 000e FFF7FEFF 		bl	LCD_WriteControl
 154:.\main.c      ****     UART_Start();                       // initialize UART
 519              		.loc 1 154 0
 520 0012 FFF7FEFF 		bl	UART_Start
 155:.\main.c      ****     UART_PutChar(0x81); // init connection; set to 16x12 image 
 521              		.loc 1 155 0
 522 0016 8120     		movs	r0, #129
 523 0018 FFF7FEFF 		bl	UART_PutChar
ARM GAS  C:\Users\Andrew\AppData\Local\Temp\ccBvbRAh.s 			page 13


 156:.\main.c      ****     
 157:.\main.c      ****     struct disp_grid_81 disp; 
 158:.\main.c      ****     disp_grid_init(&disp,0x3F); // init our display grid matrix to white  
 524              		.loc 1 158 0
 525 001c 07F5B163 		add	r3, r7, #1416
 526 0020 1846     		mov	r0, r3
 527 0022 3F21     		movs	r1, #63
 528 0024 FFF7FEFF 		bl	disp_grid_init
 159:.\main.c      ****     disp_grid_transmit(&disp);
 529              		.loc 1 159 0
 530 0028 07F5B163 		add	r3, r7, #1416
 531 002c 1846     		mov	r0, r3
 532 002e FFF7FEFF 		bl	disp_grid_transmit
 160:.\main.c      ****     
 161:.\main.c      ****     int x,y,z; uint8 Values; 
 162:.\main.c      ****     
 163:.\main.c      ****     struct tic_tac_ai tta;
 164:.\main.c      ****     tta_init(&tta,4,3,true,false); //first bool for player 1, second bool for player 2
 533              		.loc 1 164 0
 534 0032 3A1D     		adds	r2, r7, #4
 535 0034 0023     		movs	r3, #0
 536 0036 0093     		str	r3, [sp]
 537 0038 1046     		mov	r0, r2
 538 003a 0421     		movs	r1, #4
 539 003c 0322     		movs	r2, #3
 540 003e 0123     		movs	r3, #1
 541 0040 FFF7FEFF 		bl	tta_init
 165:.\main.c      ****     disp_grid_init_ttc(&disp, tta.game.grid);
 542              		.loc 1 165 0
 543 0044 07F5B162 		add	r2, r7, #1416
 544 0048 3B1D     		adds	r3, r7, #4
 545 004a 03F28443 		addw	r3, r3, #1156
 546 004e 1046     		mov	r0, r2
 547 0050 1946     		mov	r1, r3
 548 0052 FFF7FEFF 		bl	disp_grid_init_ttc
 166:.\main.c      ****     disp_grid_draw_xia(&disp,26,16,0x30); // draw xia
 549              		.loc 1 166 0
 550 0056 07F5B163 		add	r3, r7, #1416
 551 005a 1846     		mov	r0, r3
 552 005c 1A21     		movs	r1, #26
 553 005e 1022     		movs	r2, #16
 554 0060 3023     		movs	r3, #48
 555 0062 FFF7FEFF 		bl	disp_grid_draw_xia
 167:.\main.c      ****     disp_grid_transmit(&disp);
 556              		.loc 1 167 0
 557 0066 07F5B163 		add	r3, r7, #1416
 558 006a 1846     		mov	r0, r3
 559 006c FFF7FEFF 		bl	disp_grid_transmit
 168:.\main.c      ****     
 169:.\main.c      ****     while (tta.game.game_not_won == 0){
 560              		.loc 1 169 0
 561 0070 38E0     		b	.L23
 562              	.L25:
 170:.\main.c      ****         Values = read_from_8255(Values); //read and print
 563              		.loc 1 170 0
 564 0072 97F88B38 		ldrb	r3, [r7, #2187]	@ zero_extendqisi2
 565 0076 1846     		mov	r0, r3
ARM GAS  C:\Users\Andrew\AppData\Local\Temp\ccBvbRAh.s 			page 14


 566 0078 FFF7FEFF 		bl	read_from_8255
 567 007c 0346     		mov	r3, r0
 568 007e 87F88B38 		strb	r3, [r7, #2187]
 171:.\main.c      ****         if (Values >= 0 && Values <= 63){ //integer value
 569              		.loc 1 171 0
 570 0082 97F88B38 		ldrb	r3, [r7, #2187]	@ zero_extendqisi2
 571 0086 3F2B     		cmp	r3, #63
 572 0088 19D8     		bhi	.L24
 172:.\main.c      ****             z = Values / 16;
 573              		.loc 1 172 0
 574 008a 97F88B38 		ldrb	r3, [r7, #2187]	@ zero_extendqisi2
 575 008e 1B09     		lsrs	r3, r3, #4
 576 0090 DBB2     		uxtb	r3, r3
 577 0092 C7F88C38 		str	r3, [r7, #2188]
 173:.\main.c      ****             x = Values % 4; //get row value
 578              		.loc 1 173 0
 579 0096 97F88B38 		ldrb	r3, [r7, #2187]	@ zero_extendqisi2
 580 009a 03F00303 		and	r3, r3, #3
 581 009e C7F89438 		str	r3, [r7, #2196]
 174:.\main.c      ****             y = Values / 4 - z*4; // 
 582              		.loc 1 174 0
 583 00a2 97F88B38 		ldrb	r3, [r7, #2187]	@ zero_extendqisi2
 584 00a6 9B08     		lsrs	r3, r3, #2
 585 00a8 DBB2     		uxtb	r3, r3
 586 00aa 1946     		mov	r1, r3
 587 00ac D7F88C28 		ldr	r2, [r7, #2188]
 588 00b0 1346     		mov	r3, r2
 589 00b2 9B07     		lsls	r3, r3, #30
 590 00b4 9B1A     		subs	r3, r3, r2
 591 00b6 9B00     		lsls	r3, r3, #2
 592 00b8 0B44     		add	r3, r3, r1
 593 00ba C7F89038 		str	r3, [r7, #2192]
 594              	.L24:
 175:.\main.c      **** //            LCD_ClearDisplay();
 176:.\main.c      **** //            LCD_PrintNumber(Values);
 177:.\main.c      **** //            LCD_PrintString(" x");
 178:.\main.c      **** //            LCD_PrintNumber(x);
 179:.\main.c      **** //            LCD_PrintString(" y");
 180:.\main.c      **** //            LCD_PrintNumber(y);
 181:.\main.c      **** //            LCD_PrintString(" z");
 182:.\main.c      **** //            LCD_PrintNumber(z);
 183:.\main.c      ****         }
 184:.\main.c      ****         tta_step(&disp,&tta,x,y,z); //increment a turn
 595              		.loc 1 184 0
 596 00be 07F5B161 		add	r1, r7, #1416
 597 00c2 3A1D     		adds	r2, r7, #4
 598 00c4 D7F88C38 		ldr	r3, [r7, #2188]
 599 00c8 0093     		str	r3, [sp]
 600 00ca 0846     		mov	r0, r1
 601 00cc 1146     		mov	r1, r2
 602 00ce D7F89428 		ldr	r2, [r7, #2196]
 603 00d2 D7F89038 		ldr	r3, [r7, #2192]
 604 00d6 FFF7FEFF 		bl	tta_step
 185:.\main.c      ****         disp_grid_transmit(&disp);
 605              		.loc 1 185 0
 606 00da 07F5B163 		add	r3, r7, #1416
 607 00de 1846     		mov	r0, r3
ARM GAS  C:\Users\Andrew\AppData\Local\Temp\ccBvbRAh.s 			page 15


 608 00e0 FFF7FEFF 		bl	disp_grid_transmit
 609              	.L23:
 169:.\main.c      ****         Values = read_from_8255(Values); //read and print
 610              		.loc 1 169 0
 611 00e4 3B1D     		adds	r3, r7, #4
 612 00e6 D3F88034 		ldr	r3, [r3, #1152]
 613 00ea 002B     		cmp	r3, #0
 614 00ec C1D0     		beq	.L25
 186:.\main.c      ****     }
 187:.\main.c      ****     LCD_ClearDisplay();
 615              		.loc 1 187 0
 616 00ee 0120     		movs	r0, #1
 617 00f0 FFF7FEFF 		bl	LCD_WriteControl
 188:.\main.c      ****     LCD_PrintString("GAME OVER!");   
 618              		.loc 1 188 0
 619 00f4 0348     		ldr	r0, .L26
 620 00f6 FFF7FEFF 		bl	LCD_PrintString
 189:.\main.c      ****     
 190:.\main.c      **** }
 621              		.loc 1 190 0
 622 00fa 07F69807 		addw	r7, r7, #2200
 623              		.cfi_def_cfa_offset 8
 624 00fe BD46     		mov	sp, r7
 625              		.cfi_def_cfa_register 13
 626              		@ sp needed
 627 0100 80BD     		pop	{r7, pc}
 628              	.L27:
 629 0102 00BF     		.align	2
 630              	.L26:
 631 0104 08000000 		.word	.LC1
 632              		.cfi_endproc
 633              	.LFE66:
 634              		.size	main_play_tta_ai, .-main_play_tta_ai
 635              		.section	.rodata
 636 0023 00       		.align	2
 637              	.LC4:
 638 0024 207800   		.ascii	" x\000"
 639 0027 00       		.align	2
 640              	.LC5:
 641 0028 207900   		.ascii	" y\000"
 642 002b 00       		.align	2
 643              	.LC6:
 644 002c 207A00   		.ascii	" z\000"
 645 002f 00       		.section	.text.main_play_ttc,"ax",%progbits
 646              		.align	2
 647              		.global	main_play_ttc
 648              		.thumb
 649              		.thumb_func
 650              		.type	main_play_ttc, %function
 651              	main_play_ttc:
 652              	.LFB67:
 191:.\main.c      **** 
 192:.\main.c      **** void main_play_ttc(){
 653              		.loc 1 192 0
 654              		.cfi_startproc
 655              		@ args = 0, pretend = 0, frame = 1064
 656              		@ frame_needed = 1, uses_anonymous_args = 0
ARM GAS  C:\Users\Andrew\AppData\Local\Temp\ccBvbRAh.s 			page 16


 657 0000 80B5     		push	{r7, lr}
 658              		.cfi_def_cfa_offset 8
 659              		.cfi_offset 7, -8
 660              		.cfi_offset 14, -4
 661 0002 ADF5866D 		sub	sp, sp, #1072
 662              		.cfi_def_cfa_offset 1080
 663 0006 02AF     		add	r7, sp, #8
 664              		.cfi_def_cfa 7, 1072
 193:.\main.c      ****     LCD_Start();					    // initialize lcd
 665              		.loc 1 193 0
 666 0008 FFF7FEFF 		bl	LCD_Start
 194:.\main.c      ****     LCD_ClearDisplay();
 667              		.loc 1 194 0
 668 000c 0120     		movs	r0, #1
 669 000e FFF7FEFF 		bl	LCD_WriteControl
 195:.\main.c      ****     UART_Start();                       // initialize UART
 670              		.loc 1 195 0
 671 0012 FFF7FEFF 		bl	UART_Start
 196:.\main.c      ****     UART_PutChar(0x81); // init connection; set to 16x12 image 
 672              		.loc 1 196 0
 673 0016 8120     		movs	r0, #129
 674 0018 FFF7FEFF 		bl	UART_PutChar
 197:.\main.c      ****     
 198:.\main.c      ****     struct disp_grid_81 disp; 
 199:.\main.c      ****     disp_grid_init(&disp,0x3F); // init our display grid matrix to white  
 675              		.loc 1 199 0
 676 001c 07F58C73 		add	r3, r7, #280
 677 0020 1846     		mov	r0, r3
 678 0022 3F21     		movs	r1, #63
 679 0024 FFF7FEFF 		bl	disp_grid_init
 200:.\main.c      ****     disp_grid_transmit(&disp);
 680              		.loc 1 200 0
 681 0028 07F58C73 		add	r3, r7, #280
 682 002c 1846     		mov	r0, r3
 683 002e FFF7FEFF 		bl	disp_grid_transmit
 201:.\main.c      ****     
 202:.\main.c      ****     struct tic_tac_toe lolz;
 203:.\main.c      ****  	ttc_init(&lolz,4,3);    
 684              		.loc 1 203 0
 685 0032 3B1D     		adds	r3, r7, #4
 686 0034 1846     		mov	r0, r3
 687 0036 0421     		movs	r1, #4
 688 0038 0322     		movs	r2, #3
 689 003a FFF7FEFF 		bl	ttc_init
 204:.\main.c      ****     disp_grid_init_ttc(&disp,lolz.grid); // init the board
 690              		.loc 1 204 0
 691 003e 07F58C72 		add	r2, r7, #280
 692 0042 3B1D     		adds	r3, r7, #4
 693 0044 1433     		adds	r3, r3, #20
 694 0046 1046     		mov	r0, r2
 695 0048 1946     		mov	r1, r3
 696 004a FFF7FEFF 		bl	disp_grid_init_ttc
 205:.\main.c      ****     disp_grid_draw_xia(&disp,26,16,0x30); // draw xia
 697              		.loc 1 205 0
 698 004e 07F58C73 		add	r3, r7, #280
 699 0052 1846     		mov	r0, r3
 700 0054 1A21     		movs	r1, #26
ARM GAS  C:\Users\Andrew\AppData\Local\Temp\ccBvbRAh.s 			page 17


 701 0056 1022     		movs	r2, #16
 702 0058 3023     		movs	r3, #48
 703 005a FFF7FEFF 		bl	disp_grid_draw_xia
 206:.\main.c      ****     disp_grid_transmit(&disp);
 704              		.loc 1 206 0
 705 005e 07F58C73 		add	r3, r7, #280
 706 0062 1846     		mov	r0, r3
 707 0064 FFF7FEFF 		bl	disp_grid_transmit
 207:.\main.c      ****     
 208:.\main.c      ****     int x,y,z; int Values;
 209:.\main.c      ****     
 210:.\main.c      ****     while (lolz.game_not_won == 0){
 708              		.loc 1 210 0
 709 0068 74E0     		b	.L29
 710              	.L34:
 211:.\main.c      ****         //Values = read_from_8255(Values);
 212:.\main.c      ****         Values = Pin3_Read();
 711              		.loc 1 212 0
 712 006a FFF7FEFF 		bl	Pin3_Read
 713 006e 0346     		mov	r3, r0
 714 0070 C7F81834 		str	r3, [r7, #1048]
 213:.\main.c      ****         if (Values >= 0 && Values <= 63){ //integer value
 715              		.loc 1 213 0
 716 0074 D7F81834 		ldr	r3, [r7, #1048]
 717 0078 002B     		cmp	r3, #0
 718 007a 4BDB     		blt	.L30
 719              		.loc 1 213 0 is_stmt 0 discriminator 1
 720 007c D7F81834 		ldr	r3, [r7, #1048]
 721 0080 3F2B     		cmp	r3, #63
 722 0082 47DC     		bgt	.L30
 214:.\main.c      ****             z = Values / 16;
 723              		.loc 1 214 0 is_stmt 1
 724 0084 D7F81834 		ldr	r3, [r7, #1048]
 725 0088 002B     		cmp	r3, #0
 726 008a 00DA     		bge	.L31
 727 008c 0F33     		adds	r3, r3, #15
 728              	.L31:
 729 008e 1B11     		asrs	r3, r3, #4
 730 0090 C7F81C34 		str	r3, [r7, #1052]
 215:.\main.c      ****             x = Values % 4; //get row value
 731              		.loc 1 215 0
 732 0094 D7F81824 		ldr	r2, [r7, #1048]
 733 0098 374B     		ldr	r3, .L35
 734 009a 1340     		ands	r3, r3, r2
 735 009c 002B     		cmp	r3, #0
 736 009e 03DA     		bge	.L32
 737 00a0 013B     		subs	r3, r3, #1
 738 00a2 63F00303 		orn	r3, r3, #3
 739 00a6 0133     		adds	r3, r3, #1
 740              	.L32:
 741 00a8 C7F82434 		str	r3, [r7, #1060]
 216:.\main.c      ****             y = Values / 4 - z*4; // 
 742              		.loc 1 216 0
 743 00ac D7F81834 		ldr	r3, [r7, #1048]
 744 00b0 002B     		cmp	r3, #0
 745 00b2 00DA     		bge	.L33
 746 00b4 0333     		adds	r3, r3, #3
ARM GAS  C:\Users\Andrew\AppData\Local\Temp\ccBvbRAh.s 			page 18


 747              	.L33:
 748 00b6 9B10     		asrs	r3, r3, #2
 749 00b8 1946     		mov	r1, r3
 750 00ba D7F81C24 		ldr	r2, [r7, #1052]
 751 00be 1346     		mov	r3, r2
 752 00c0 9B07     		lsls	r3, r3, #30
 753 00c2 9B1A     		subs	r3, r3, r2
 754 00c4 9B00     		lsls	r3, r3, #2
 755 00c6 0B44     		add	r3, r3, r1
 756 00c8 C7F82034 		str	r3, [r7, #1056]
 217:.\main.c      ****             LCD_ClearDisplay();
 757              		.loc 1 217 0
 758 00cc 0120     		movs	r0, #1
 759 00ce FFF7FEFF 		bl	LCD_WriteControl
 218:.\main.c      ****             LCD_PrintNumber(Values);
 760              		.loc 1 218 0
 761 00d2 D7F81834 		ldr	r3, [r7, #1048]
 762 00d6 9BB2     		uxth	r3, r3
 763 00d8 1846     		mov	r0, r3
 764 00da FFF7FEFF 		bl	LCD_PrintU32Number
 219:.\main.c      ****             LCD_PrintString(" x");
 765              		.loc 1 219 0
 766 00de 2748     		ldr	r0, .L35+4
 767 00e0 FFF7FEFF 		bl	LCD_PrintString
 220:.\main.c      ****             LCD_PrintNumber(x);
 768              		.loc 1 220 0
 769 00e4 D7F82434 		ldr	r3, [r7, #1060]
 770 00e8 9BB2     		uxth	r3, r3
 771 00ea 1846     		mov	r0, r3
 772 00ec FFF7FEFF 		bl	LCD_PrintU32Number
 221:.\main.c      ****             LCD_PrintString(" y");
 773              		.loc 1 221 0
 774 00f0 2348     		ldr	r0, .L35+8
 775 00f2 FFF7FEFF 		bl	LCD_PrintString
 222:.\main.c      ****             LCD_PrintNumber(y);
 776              		.loc 1 222 0
 777 00f6 D7F82034 		ldr	r3, [r7, #1056]
 778 00fa 9BB2     		uxth	r3, r3
 779 00fc 1846     		mov	r0, r3
 780 00fe FFF7FEFF 		bl	LCD_PrintU32Number
 223:.\main.c      ****             LCD_PrintString(" z");
 781              		.loc 1 223 0
 782 0102 2048     		ldr	r0, .L35+12
 783 0104 FFF7FEFF 		bl	LCD_PrintString
 224:.\main.c      ****             LCD_PrintNumber(z);
 784              		.loc 1 224 0
 785 0108 D7F81C34 		ldr	r3, [r7, #1052]
 786 010c 9BB2     		uxth	r3, r3
 787 010e 1846     		mov	r0, r3
 788 0110 FFF7FEFF 		bl	LCD_PrintU32Number
 789              	.L30:
 225:.\main.c      ****         }
 226:.\main.c      ****         if (ttc_get_grid(&lolz,x,y,z) == 0){ // has not been accessed
 790              		.loc 1 226 0
 791 0114 3B1D     		adds	r3, r7, #4
 792 0116 1846     		mov	r0, r3
 793 0118 D7F82414 		ldr	r1, [r7, #1060]
ARM GAS  C:\Users\Andrew\AppData\Local\Temp\ccBvbRAh.s 			page 19


 794 011c D7F82024 		ldr	r2, [r7, #1056]
 795 0120 D7F81C34 		ldr	r3, [r7, #1052]
 796 0124 FFF7FEFF 		bl	ttc_get_grid
 797 0128 0346     		mov	r3, r0
 798 012a 002B     		cmp	r3, #0
 799 012c 12D1     		bne	.L29
 227:.\main.c      ****             ttc_step(&disp,&lolz,x,y,z); // step & print
 800              		.loc 1 227 0
 801 012e 07F58C71 		add	r1, r7, #280
 802 0132 3A1D     		adds	r2, r7, #4
 803 0134 D7F81C34 		ldr	r3, [r7, #1052]
 804 0138 0093     		str	r3, [sp]
 805 013a 0846     		mov	r0, r1
 806 013c 1146     		mov	r1, r2
 807 013e D7F82424 		ldr	r2, [r7, #1060]
 808 0142 D7F82034 		ldr	r3, [r7, #1056]
 809 0146 FFF7FEFF 		bl	ttc_step
 228:.\main.c      ****             disp_grid_transmit(&disp);
 810              		.loc 1 228 0
 811 014a 07F58C73 		add	r3, r7, #280
 812 014e 1846     		mov	r0, r3
 813 0150 FFF7FEFF 		bl	disp_grid_transmit
 814              	.L29:
 210:.\main.c      ****         //Values = read_from_8255(Values);
 815              		.loc 1 210 0
 816 0154 3B1D     		adds	r3, r7, #4
 817 0156 1B69     		ldr	r3, [r3, #16]
 818 0158 002B     		cmp	r3, #0
 819 015a 86D0     		beq	.L34
 229:.\main.c      ****         }
 230:.\main.c      ****         
 231:.\main.c      ****     }
 232:.\main.c      ****     LCD_ClearDisplay();
 820              		.loc 1 232 0
 821 015c 0120     		movs	r0, #1
 822 015e FFF7FEFF 		bl	LCD_WriteControl
 233:.\main.c      ****     LCD_Position(0,0); //move to bot row
 823              		.loc 1 233 0
 824 0162 0020     		movs	r0, #0
 825 0164 0021     		movs	r1, #0
 826 0166 FFF7FEFF 		bl	LCD_Position
 234:.\main.c      ****     LCD_PrintString("GAME OVER!");    
 827              		.loc 1 234 0
 828 016a 0748     		ldr	r0, .L35+16
 829 016c FFF7FEFF 		bl	LCD_PrintString
 235:.\main.c      ****     
 236:.\main.c      **** }
 830              		.loc 1 236 0
 831 0170 07F58567 		add	r7, r7, #1064
 832              		.cfi_def_cfa_offset 8
 833 0174 BD46     		mov	sp, r7
 834              		.cfi_def_cfa_register 13
 835              		@ sp needed
 836 0176 80BD     		pop	{r7, pc}
 837              	.L36:
 838              		.align	2
 839              	.L35:
ARM GAS  C:\Users\Andrew\AppData\Local\Temp\ccBvbRAh.s 			page 20


 840 0178 03000080 		.word	-2147483645
 841 017c 24000000 		.word	.LC4
 842 0180 28000000 		.word	.LC5
 843 0184 2C000000 		.word	.LC6
 844 0188 08000000 		.word	.LC1
 845              		.cfi_endproc
 846              	.LFE67:
 847              		.size	main_play_ttc, .-main_play_ttc
 848              		.text
 849              	.Letext0:
 850              		.file 2 "c:\\program files (x86)\\cypress\\psoc creator\\3.3\\psoc creator\\import\\gnu\\arm\\4.9.
 851              		.file 3 "c:\\program files (x86)\\cypress\\psoc creator\\3.3\\psoc creator\\import\\gnu\\arm\\4.9.
 852              		.file 4 "Generated_Source\\PSoC5/cytypes.h"
 853              		.file 5 "./disp.h"
 854              		.file 6 "./tic_tac_all.h"
 855              		.file 7 "Generated_Source\\PSoC5/core_cm3.h"