ARM GAS  C:\Users\Andrew\AppData\Local\Temp\ccXXzl3U.s 			page 1


   1              		.syntax unified
   2              		.cpu cortex-m3
   3              		.fpu softvfp
   4              		.eabi_attribute 20, 1
   5              		.eabi_attribute 21, 1
   6              		.eabi_attribute 23, 3
   7              		.eabi_attribute 24, 1
   8              		.eabi_attribute 25, 1
   9              		.eabi_attribute 26, 1
  10              		.eabi_attribute 30, 6
  11              		.eabi_attribute 34, 1
  12              		.eabi_attribute 18, 4
  13              		.thumb
  14              		.file	"untitled01.c"
  15              		.text
  16              	.Ltext0:
  17              		.cfi_sections	.debug_frame
  18              		.section	.text.waiter,"ax",%progbits
  19              		.align	2
  20              		.global	waiter
  21              		.thumb
  22              		.thumb_func
  23              		.type	waiter, %function
  24              	waiter:
  25              	.LFB63:
  26              		.file 1 ".\\untitled01.c"
   1:.\untitled01.c **** /* ========================================
   2:.\untitled01.c ****  *
   3:.\untitled01.c ****  * Copyright YOUR COMPANY, THE YEAR
   4:.\untitled01.c ****  * All Rights Reserved
   5:.\untitled01.c ****  * UNPUBLISHED, LICENSED SOFTWARE.
   6:.\untitled01.c ****  *
   7:.\untitled01.c ****  * CONFIDENTIAL AND PROPRIETARY INFORMATION
   8:.\untitled01.c ****  * WHICH IS THE PROPERTY OF your company.
   9:.\untitled01.c ****  *
  10:.\untitled01.c ****  * ========================================
  11:.\untitled01.c **** */
  12:.\untitled01.c **** 
  13:.\untitled01.c **** //huding huding
  14:.\untitled01.c **** 
  15:.\untitled01.c **** #ifndef DEVICE_H
  16:.\untitled01.c **** #define DEVICE_H
  17:.\untitled01.c **** #include <project.h>
  18:.\untitled01.c **** 
  19:.\untitled01.c **** #endif
  20:.\untitled01.c **** 
  21:.\untitled01.c **** #ifndef WAITER
  22:.\untitled01.c **** #define WAITER
  23:.\untitled01.c **** 
  24:.\untitled01.c **** void waiter( int seconds )
  25:.\untitled01.c **** {   // Pretty crossplatform, both ALL POSIX compliant systems AND Windows
  27              		.loc 1 25 0
  28              		.cfi_startproc
  29              		@ args = 0, pretend = 0, frame = 16
  30              		@ frame_needed = 1, uses_anonymous_args = 0
  31              		@ link register save eliminated.
  32 0000 80B4     		push	{r7}
ARM GAS  C:\Users\Andrew\AppData\Local\Temp\ccXXzl3U.s 			page 2


  33              		.cfi_def_cfa_offset 4
  34              		.cfi_offset 7, -4
  35 0002 85B0     		sub	sp, sp, #20
  36              		.cfi_def_cfa_offset 24
  37 0004 00AF     		add	r7, sp, #0
  38              		.cfi_def_cfa_register 7
  39 0006 7860     		str	r0, [r7, #4]
  26:.\untitled01.c ****     int i,j;
  27:.\untitled01.c ****     for (i = 0; i < seconds*1000; i++){
  40              		.loc 1 27 0
  41 0008 0023     		movs	r3, #0
  42 000a FB60     		str	r3, [r7, #12]
  43 000c 10E0     		b	.L2
  44              	.L5:
  28:.\untitled01.c ****         for (j = 0; j < seconds*1000; j++){
  45              		.loc 1 28 0
  46 000e 0023     		movs	r3, #0
  47 0010 BB60     		str	r3, [r7, #8]
  48 0012 02E0     		b	.L3
  49              	.L4:
  50              		.loc 1 28 0 is_stmt 0 discriminator 3
  51 0014 BB68     		ldr	r3, [r7, #8]
  52 0016 0133     		adds	r3, r3, #1
  53 0018 BB60     		str	r3, [r7, #8]
  54              	.L3:
  55              		.loc 1 28 0 discriminator 1
  56 001a 7B68     		ldr	r3, [r7, #4]
  57 001c 4FF47A72 		mov	r2, #1000
  58 0020 02FB03F2 		mul	r2, r2, r3
  59 0024 BB68     		ldr	r3, [r7, #8]
  60 0026 9A42     		cmp	r2, r3
  61 0028 F4DC     		bgt	.L4
  27:.\untitled01.c ****         for (j = 0; j < seconds*1000; j++){
  62              		.loc 1 27 0 is_stmt 1 discriminator 2
  63 002a FB68     		ldr	r3, [r7, #12]
  64 002c 0133     		adds	r3, r3, #1
  65 002e FB60     		str	r3, [r7, #12]
  66              	.L2:
  27:.\untitled01.c ****         for (j = 0; j < seconds*1000; j++){
  67              		.loc 1 27 0 is_stmt 0 discriminator 1
  68 0030 7B68     		ldr	r3, [r7, #4]
  69 0032 4FF47A72 		mov	r2, #1000
  70 0036 02FB03F2 		mul	r2, r2, r3
  71 003a FB68     		ldr	r3, [r7, #12]
  72 003c 9A42     		cmp	r2, r3
  73 003e E6DC     		bgt	.L5
  29:.\untitled01.c ****         }
  30:.\untitled01.c ****     }
  31:.\untitled01.c **** }
  74              		.loc 1 31 0 is_stmt 1
  75 0040 1437     		adds	r7, r7, #20
  76              		.cfi_def_cfa_offset 4
  77 0042 BD46     		mov	sp, r7
  78              		.cfi_def_cfa_register 13
  79              		@ sp needed
  80 0044 5DF8047B 		ldr	r7, [sp], #4
  81              		.cfi_restore 7
ARM GAS  C:\Users\Andrew\AppData\Local\Temp\ccXXzl3U.s 			page 3


  82              		.cfi_def_cfa_offset 0
  83 0048 7047     		bx	lr
  84              		.cfi_endproc
  85              	.LFE63:
  86              		.size	waiter, .-waiter
  87 004a 00BF     		.section	.text.disper,"ax",%progbits
  88              		.align	2
  89              		.global	disper
  90              		.thumb
  91              		.thumb_func
  92              		.type	disper, %function
  93              	disper:
  94              	.LFB64:
  32:.\untitled01.c **** 
  33:.\untitled01.c **** void disper(uint8 colorA, uint8 colorB){
  95              		.loc 1 33 0
  96              		.cfi_startproc
  97              		@ args = 0, pretend = 0, frame = 16
  98              		@ frame_needed = 1, uses_anonymous_args = 0
  99 0000 80B5     		push	{r7, lr}
 100              		.cfi_def_cfa_offset 8
 101              		.cfi_offset 7, -8
 102              		.cfi_offset 14, -4
 103 0002 84B0     		sub	sp, sp, #16
 104              		.cfi_def_cfa_offset 24
 105 0004 00AF     		add	r7, sp, #0
 106              		.cfi_def_cfa_register 7
 107 0006 0346     		mov	r3, r0
 108 0008 0A46     		mov	r2, r1
 109 000a FB71     		strb	r3, [r7, #7]
 110 000c 1346     		mov	r3, r2
 111 000e BB71     		strb	r3, [r7, #6]
  34:.\untitled01.c ****     int row,col;
  35:.\untitled01.c ****     for (row = 0; row < 32; row++){
 112              		.loc 1 35 0
 113 0010 0023     		movs	r3, #0
 114 0012 FB60     		str	r3, [r7, #12]
 115 0014 13E0     		b	.L7
 116              	.L10:
  36:.\untitled01.c ****         for (col = 0; col < 12; col++){
 117              		.loc 1 36 0
 118 0016 0023     		movs	r3, #0
 119 0018 BB60     		str	r3, [r7, #8]
 120 001a 0AE0     		b	.L8
 121              	.L9:
  37:.\untitled01.c ****             UART_PutChar(colorA); // red
 122              		.loc 1 37 0 discriminator 3
 123 001c FB79     		ldrb	r3, [r7, #7]	@ zero_extendqisi2
 124 001e 1846     		mov	r0, r3
 125 0020 FFF7FEFF 		bl	UART_PutChar
  38:.\untitled01.c ****             UART_PutChar(colorB); // green
 126              		.loc 1 38 0 discriminator 3
 127 0024 BB79     		ldrb	r3, [r7, #6]	@ zero_extendqisi2
 128 0026 1846     		mov	r0, r3
 129 0028 FFF7FEFF 		bl	UART_PutChar
  36:.\untitled01.c ****         for (col = 0; col < 12; col++){
 130              		.loc 1 36 0 discriminator 3
ARM GAS  C:\Users\Andrew\AppData\Local\Temp\ccXXzl3U.s 			page 4


 131 002c BB68     		ldr	r3, [r7, #8]
 132 002e 0133     		adds	r3, r3, #1
 133 0030 BB60     		str	r3, [r7, #8]
 134              	.L8:
  36:.\untitled01.c ****         for (col = 0; col < 12; col++){
 135              		.loc 1 36 0 is_stmt 0 discriminator 1
 136 0032 BB68     		ldr	r3, [r7, #8]
 137 0034 0B2B     		cmp	r3, #11
 138 0036 F1DD     		ble	.L9
  35:.\untitled01.c ****         for (col = 0; col < 12; col++){
 139              		.loc 1 35 0 is_stmt 1 discriminator 2
 140 0038 FB68     		ldr	r3, [r7, #12]
 141 003a 0133     		adds	r3, r3, #1
 142 003c FB60     		str	r3, [r7, #12]
 143              	.L7:
  35:.\untitled01.c ****         for (col = 0; col < 12; col++){
 144              		.loc 1 35 0 is_stmt 0 discriminator 1
 145 003e FB68     		ldr	r3, [r7, #12]
 146 0040 1F2B     		cmp	r3, #31
 147 0042 E8DD     		ble	.L10
  39:.\untitled01.c ****         }
  40:.\untitled01.c ****     }    
  41:.\untitled01.c **** }
 148              		.loc 1 41 0 is_stmt 1
 149 0044 1037     		adds	r7, r7, #16
 150              		.cfi_def_cfa_offset 8
 151 0046 BD46     		mov	sp, r7
 152              		.cfi_def_cfa_register 13
 153              		@ sp needed
 154 0048 80BD     		pop	{r7, pc}
 155              		.cfi_endproc
 156              	.LFE64:
 157              		.size	disper, .-disper
 158 004a 00BF     		.text
 159              	.Letext0:
 160              		.file 2 "c:\\program files (x86)\\cypress\\psoc creator\\3.3\\psoc creator\\import\\gnu\\arm\\4.9.
 161              		.file 3 "c:\\program files (x86)\\cypress\\psoc creator\\3.3\\psoc creator\\import\\gnu\\arm\\4.9.
 162              		.file 4 "Generated_Source\\PSoC5/cytypes.h"
 163              		.file 5 "Generated_Source\\PSoC5/core_cm3.h"