ARM GAS  C:\Users\Andrew\AppData\Local\Temp\cc7EeS44.s 			page 1


   1              		.syntax unified
   2              		.cpu cortex-m3
   3              		.fpu softvfp
   4              		.eabi_attribute 20, 1
   5              		.eabi_attribute 21, 1
   6              		.eabi_attribute 23, 3
   7              		.eabi_attribute 24, 1
   8              		.eabi_attribute 25, 1
   9              		.eabi_attribute 26, 1
  10              		.eabi_attribute 30, 6
  11              		.eabi_attribute 34, 1
  12              		.eabi_attribute 18, 4
  13              		.thumb
  14              		.file	"main.c"
  15              		.text
  16              	.Ltext0:
  17              		.cfi_sections	.debug_frame
  18              		.section	.text.wait,"ax",%progbits
  19              		.align	2
  20              		.global	wait
  21              		.thumb
  22              		.thumb_func
  23              		.type	wait, %function
  24              	wait:
  25              	.LFB63:
  26              		.file 1 ".\\main.c"
   1:.\main.c      **** /* ========================================
   2:.\main.c      ****  *
   3:.\main.c      ****  * Copyright Andrew MIT 6.115, 2016
   4:.\main.c      ****  * All Rights Reserved
   5:.\main.c      ****  * UNPUBLISHED, LICENSED SOFTWARE.
   6:.\main.c      ****  *
   7:.\main.c      ****  * CONFIDENTIAL AND PROPRIETARY INFORMATION
   8:.\main.c      ****  * WHICH IS THE PROPERTY OF MIT 6.115.
   9:.\main.c      ****  *
  10:.\main.c      ****  * This file is necessary for your project to build.
  11:.\main.c      ****  * Please do not delete it.
  12:.\main.c      ****  *
  13:.\main.c      ****  * ========================================
  14:.\main.c      **** */
  15:.\main.c      **** 
  16:.\main.c      **** #include <device.h>
  17:.\main.c      **** 
  18:.\main.c      **** //CY_ISR(RX_INT)
  19:.\main.c      **** //{
  20:.\main.c      **** //    LCD_PutChar(UART_ReadRxData());     // RX ISR
  21:.\main.c      **** //}
  22:.\main.c      **** 
  23:.\main.c      **** #include <unistd.h>
  24:.\main.c      **** 
  25:.\main.c      **** void wait( int seconds )
  26:.\main.c      **** {   // Pretty crossplatform, both ALL POSIX compliant systems AND Windows
  27              		.loc 1 26 0
  28              		.cfi_startproc
  29              		@ args = 0, pretend = 0, frame = 16
  30              		@ frame_needed = 1, uses_anonymous_args = 0
  31              		@ link register save eliminated.
ARM GAS  C:\Users\Andrew\AppData\Local\Temp\cc7EeS44.s 			page 2


  32 0000 80B4     		push	{r7}
  33              		.cfi_def_cfa_offset 4
  34              		.cfi_offset 7, -4
  35 0002 85B0     		sub	sp, sp, #20
  36              		.cfi_def_cfa_offset 24
  37 0004 00AF     		add	r7, sp, #0
  38              		.cfi_def_cfa_register 7
  39 0006 7860     		str	r0, [r7, #4]
  27:.\main.c      ****     int i,j;
  28:.\main.c      ****     for (i = 0; i < seconds*1000; i++){
  40              		.loc 1 28 0
  41 0008 0023     		movs	r3, #0
  42 000a FB60     		str	r3, [r7, #12]
  43 000c 10E0     		b	.L2
  44              	.L5:
  29:.\main.c      ****         for (j = 0; j < seconds*1000; j++){
  45              		.loc 1 29 0
  46 000e 0023     		movs	r3, #0
  47 0010 BB60     		str	r3, [r7, #8]
  48 0012 02E0     		b	.L3
  49              	.L4:
  50              		.loc 1 29 0 is_stmt 0 discriminator 3
  51 0014 BB68     		ldr	r3, [r7, #8]
  52 0016 0133     		adds	r3, r3, #1
  53 0018 BB60     		str	r3, [r7, #8]
  54              	.L3:
  55              		.loc 1 29 0 discriminator 1
  56 001a 7B68     		ldr	r3, [r7, #4]
  57 001c 4FF47A72 		mov	r2, #1000
  58 0020 02FB03F2 		mul	r2, r2, r3
  59 0024 BB68     		ldr	r3, [r7, #8]
  60 0026 9A42     		cmp	r2, r3
  61 0028 F4DC     		bgt	.L4
  28:.\main.c      ****         for (j = 0; j < seconds*1000; j++){
  62              		.loc 1 28 0 is_stmt 1 discriminator 2
  63 002a FB68     		ldr	r3, [r7, #12]
  64 002c 0133     		adds	r3, r3, #1
  65 002e FB60     		str	r3, [r7, #12]
  66              	.L2:
  28:.\main.c      ****         for (j = 0; j < seconds*1000; j++){
  67              		.loc 1 28 0 is_stmt 0 discriminator 1
  68 0030 7B68     		ldr	r3, [r7, #4]
  69 0032 4FF47A72 		mov	r2, #1000
  70 0036 02FB03F2 		mul	r2, r2, r3
  71 003a FB68     		ldr	r3, [r7, #12]
  72 003c 9A42     		cmp	r2, r3
  73 003e E6DC     		bgt	.L5
  30:.\main.c      ****         }
  31:.\main.c      ****     }
  32:.\main.c      **** }
  74              		.loc 1 32 0 is_stmt 1
  75 0040 1437     		adds	r7, r7, #20
  76              		.cfi_def_cfa_offset 4
  77 0042 BD46     		mov	sp, r7
  78              		.cfi_def_cfa_register 13
  79              		@ sp needed
  80 0044 5DF8047B 		ldr	r7, [sp], #4
ARM GAS  C:\Users\Andrew\AppData\Local\Temp\cc7EeS44.s 			page 3


  81              		.cfi_restore 7
  82              		.cfi_def_cfa_offset 0
  83 0048 7047     		bx	lr
  84              		.cfi_endproc
  85              	.LFE63:
  86              		.size	wait, .-wait
  87 004a 00BF     		.section	.text.disp,"ax",%progbits
  88              		.align	2
  89              		.global	disp
  90              		.thumb
  91              		.thumb_func
  92              		.type	disp, %function
  93              	disp:
  94              	.LFB64:
  33:.\main.c      **** 
  34:.\main.c      **** void disp(uint8 colorA, uint8 colorB){
  95              		.loc 1 34 0
  96              		.cfi_startproc
  97              		@ args = 0, pretend = 0, frame = 16
  98              		@ frame_needed = 1, uses_anonymous_args = 0
  99 0000 80B5     		push	{r7, lr}
 100              		.cfi_def_cfa_offset 8
 101              		.cfi_offset 7, -8
 102              		.cfi_offset 14, -4
 103 0002 84B0     		sub	sp, sp, #16
 104              		.cfi_def_cfa_offset 24
 105 0004 00AF     		add	r7, sp, #0
 106              		.cfi_def_cfa_register 7
 107 0006 0346     		mov	r3, r0
 108 0008 0A46     		mov	r2, r1
 109 000a FB71     		strb	r3, [r7, #7]
 110 000c 1346     		mov	r3, r2
 111 000e BB71     		strb	r3, [r7, #6]
  35:.\main.c      ****     int row,col;
  36:.\main.c      ****     for (row = 0; row < 32; row++){
 112              		.loc 1 36 0
 113 0010 0023     		movs	r3, #0
 114 0012 FB60     		str	r3, [r7, #12]
 115 0014 13E0     		b	.L7
 116              	.L10:
  37:.\main.c      ****         for (col = 0; col < 12; col++){
 117              		.loc 1 37 0
 118 0016 0023     		movs	r3, #0
 119 0018 BB60     		str	r3, [r7, #8]
 120 001a 0AE0     		b	.L8
 121              	.L9:
  38:.\main.c      ****             UART_PutChar(colorA); // red
 122              		.loc 1 38 0 discriminator 3
 123 001c FB79     		ldrb	r3, [r7, #7]	@ zero_extendqisi2
 124 001e 1846     		mov	r0, r3
 125 0020 FFF7FEFF 		bl	UART_PutChar
  39:.\main.c      ****             UART_PutChar(colorB); // green
 126              		.loc 1 39 0 discriminator 3
 127 0024 BB79     		ldrb	r3, [r7, #6]	@ zero_extendqisi2
 128 0026 1846     		mov	r0, r3
 129 0028 FFF7FEFF 		bl	UART_PutChar
  37:.\main.c      ****         for (col = 0; col < 12; col++){
ARM GAS  C:\Users\Andrew\AppData\Local\Temp\cc7EeS44.s 			page 4


 130              		.loc 1 37 0 discriminator 3
 131 002c BB68     		ldr	r3, [r7, #8]
 132 002e 0133     		adds	r3, r3, #1
 133 0030 BB60     		str	r3, [r7, #8]
 134              	.L8:
  37:.\main.c      ****         for (col = 0; col < 12; col++){
 135              		.loc 1 37 0 is_stmt 0 discriminator 1
 136 0032 BB68     		ldr	r3, [r7, #8]
 137 0034 0B2B     		cmp	r3, #11
 138 0036 F1DD     		ble	.L9
  36:.\main.c      ****         for (col = 0; col < 12; col++){
 139              		.loc 1 36 0 is_stmt 1 discriminator 2
 140 0038 FB68     		ldr	r3, [r7, #12]
 141 003a 0133     		adds	r3, r3, #1
 142 003c FB60     		str	r3, [r7, #12]
 143              	.L7:
  36:.\main.c      ****         for (col = 0; col < 12; col++){
 144              		.loc 1 36 0 is_stmt 0 discriminator 1
 145 003e FB68     		ldr	r3, [r7, #12]
 146 0040 1F2B     		cmp	r3, #31
 147 0042 E8DD     		ble	.L10
  40:.\main.c      ****         }
  41:.\main.c      ****     }    
  42:.\main.c      **** }
 148              		.loc 1 42 0 is_stmt 1
 149 0044 1037     		adds	r7, r7, #16
 150              		.cfi_def_cfa_offset 8
 151 0046 BD46     		mov	sp, r7
 152              		.cfi_def_cfa_register 13
 153              		@ sp needed
 154 0048 80BD     		pop	{r7, pc}
 155              		.cfi_endproc
 156              	.LFE64:
 157              		.size	disp, .-disp
 158 004a 00BF     		.section	.text.main,"ax",%progbits
 159              		.align	2
 160              		.global	main
 161              		.thumb
 162              		.thumb_func
 163              		.type	main, %function
 164              	main:
 165              	.LFB65:
  43:.\main.c      **** 
  44:.\main.c      **** void main()
  45:.\main.c      **** {	
 166              		.loc 1 45 0
 167              		.cfi_startproc
 168              		@ args = 0, pretend = 0, frame = 8
 169              		@ frame_needed = 1, uses_anonymous_args = 0
 170 0000 80B5     		push	{r7, lr}
 171              		.cfi_def_cfa_offset 8
 172              		.cfi_offset 7, -8
 173              		.cfi_offset 14, -4
 174 0002 82B0     		sub	sp, sp, #8
 175              		.cfi_def_cfa_offset 16
 176 0004 00AF     		add	r7, sp, #0
 177              		.cfi_def_cfa_register 7
ARM GAS  C:\Users\Andrew\AppData\Local\Temp\cc7EeS44.s 			page 5


  46:.\main.c      **** 	LCD_Start();					    // initialize lcd
 178              		.loc 1 46 0
 179 0006 FFF7FEFF 		bl	LCD_Start
  47:.\main.c      **** 	LCD_ClearDisplay();
 180              		.loc 1 47 0
 181 000a 0120     		movs	r0, #1
 182 000c FFF7FEFF 		bl	LCD_WriteControl
  48:.\main.c      ****     
  49:.\main.c      ****     //CyGlobalIntEnable;
  50:.\main.c      ****     //rx_int_StartEx(RX_INT);             // start RX interrupt (look for CY_ISR with RX_INT addres
  51:.\main.c      ****                                         // for code that writes received bytes to LCD.
  52:.\main.c      ****     
  53:.\main.c      ****     UART_Start();                       // initialize UART
 183              		.loc 1 53 0
 184 0010 FFF7FEFF 		bl	UART_Start
  54:.\main.c      ****     //UART_ClearRxBuffer();
  55:.\main.c      ****     
  56:.\main.c      ****     LCD_PutChar(0x35); //print a 5
 185              		.loc 1 56 0
 186 0014 3520     		movs	r0, #53
 187 0016 FFF7FEFF 		bl	LCD_PutChar
  57:.\main.c      ****    
  58:.\main.c      ****     
  59:.\main.c      ****     int i;
  60:.\main.c      ****     UART_PutChar(0x81); // init connection; set to 16x12 image 
 188              		.loc 1 60 0
 189 001a 8120     		movs	r0, #129
 190 001c FFF7FEFF 		bl	UART_PutChar
  61:.\main.c      ****     for (i = 0; i < 5; i++){
 191              		.loc 1 61 0
 192 0020 0023     		movs	r3, #0
 193 0022 7B60     		str	r3, [r7, #4]
 194 0024 10E0     		b	.L12
 195              	.L13:
  62:.\main.c      ****         disp(0x30,0x00); //red black
 196              		.loc 1 62 0 discriminator 3
 197 0026 3020     		movs	r0, #48
 198 0028 0021     		movs	r1, #0
 199 002a FFF7FEFF 		bl	disp
  63:.\main.c      ****         wait(1);
 200              		.loc 1 63 0 discriminator 3
 201 002e 0120     		movs	r0, #1
 202 0030 FFF7FEFF 		bl	wait
  64:.\main.c      ****         disp(0x30,0x0c); //red green
 203              		.loc 1 64 0 discriminator 3
 204 0034 3020     		movs	r0, #48
 205 0036 0C21     		movs	r1, #12
 206 0038 FFF7FEFF 		bl	disp
  65:.\main.c      ****         wait(1);
 207              		.loc 1 65 0 discriminator 3
 208 003c 0120     		movs	r0, #1
 209 003e FFF7FEFF 		bl	wait
  61:.\main.c      ****         disp(0x30,0x00); //red black
 210              		.loc 1 61 0 discriminator 3
 211 0042 7B68     		ldr	r3, [r7, #4]
 212 0044 0133     		adds	r3, r3, #1
 213 0046 7B60     		str	r3, [r7, #4]
ARM GAS  C:\Users\Andrew\AppData\Local\Temp\cc7EeS44.s 			page 6


 214              	.L12:
  61:.\main.c      ****         disp(0x30,0x00); //red black
 215              		.loc 1 61 0 is_stmt 0 discriminator 1
 216 0048 7B68     		ldr	r3, [r7, #4]
 217 004a 042B     		cmp	r3, #4
 218 004c EBDD     		ble	.L13
  66:.\main.c      ****     }
  67:.\main.c      ****     
  68:.\main.c      ****     LCD_PutChar(0x35); //print a 5
 219              		.loc 1 68 0 is_stmt 1
 220 004e 3520     		movs	r0, #53
 221 0050 FFF7FEFF 		bl	LCD_PutChar
 222              	.L14:
  69:.\main.c      ****     
  70:.\main.c      ****     
  71:.\main.c      **** 
  72:.\main.c      ****     for(;;)
  73:.\main.c      ****     {}
 223              		.loc 1 73 0 discriminator 1
 224 0054 FEE7     		b	.L14
 225              		.cfi_endproc
 226              	.LFE65:
 227              		.size	main, .-main
 228 0056 00BF     		.text
 229              	.Letext0:
 230              		.file 2 "c:\\program files (x86)\\cypress\\psoc creator\\3.3\\psoc creator\\import\\gnu\\arm\\4.9.
 231              		.file 3 "c:\\program files (x86)\\cypress\\psoc creator\\3.3\\psoc creator\\import\\gnu\\arm\\4.9.
 232              		.file 4 "Generated_Source\\PSoC5/cytypes.h"
 233              		.file 5 "Generated_Source\\PSoC5/core_cm3.h"