ARM GAS  C:\Users\Andrew\AppData\Local\Temp\ccolTuGu.s 			page 1


   1              		.syntax unified
   2              		.cpu cortex-m3
   3              		.fpu softvfp
   4              		.eabi_attribute 20, 1
   5              		.eabi_attribute 21, 1
   6              		.eabi_attribute 23, 3
   7              		.eabi_attribute 24, 1
   8              		.eabi_attribute 25, 1
   9              		.eabi_attribute 26, 1
  10              		.eabi_attribute 30, 6
  11              		.eabi_attribute 34, 1
  12              		.eabi_attribute 18, 4
  13              		.thumb
  14              		.file	"main.c"
  15              		.text
  16              	.Ltext0:
  17              		.cfi_sections	.debug_frame
  18              		.section	.text.RX_INT,"ax",%progbits
  19              		.align	2
  20              		.global	RX_INT
  21              		.thumb
  22              		.thumb_func
  23              		.type	RX_INT, %function
  24              	RX_INT:
  25              	.LFB63:
  26              		.file 1 ".\\main.c"
   1:.\main.c      **** /* ========================================
   2:.\main.c      ****  *
   3:.\main.c      ****  * Copyright MIT 6.115, 2013
   4:.\main.c      ****  * All Rights Reserved
   5:.\main.c      ****  * UNPUBLISHED, LICENSED SOFTWARE.
   6:.\main.c      ****  *
   7:.\main.c      ****  * CONFIDENTIAL AND PROPRIETARY INFORMATION
   8:.\main.c      ****  * WHICH IS THE PROPERTY OF MIT 6.115.
   9:.\main.c      ****  *
  10:.\main.c      ****  * This file is necessary for your project to build.
  11:.\main.c      ****  * Please do not delete it.
  12:.\main.c      ****  *
  13:.\main.c      ****  * ========================================
  14:.\main.c      **** */
  15:.\main.c      **** 
  16:.\main.c      **** #include <device.h>
  17:.\main.c      **** 
  18:.\main.c      **** CY_ISR(RX_INT)
  19:.\main.c      **** {
  27              		.loc 1 19 0
  28              		.cfi_startproc
  29              		@ args = 0, pretend = 0, frame = 0
  30              		@ frame_needed = 1, uses_anonymous_args = 0
  31 0000 80B5     		push	{r7, lr}
  32              		.cfi_def_cfa_offset 8
  33              		.cfi_offset 7, -8
  34              		.cfi_offset 14, -4
  35 0002 00AF     		add	r7, sp, #0
  36              		.cfi_def_cfa_register 7
  20:.\main.c      ****     LCD_PutChar(UART_ReadRxData());     // RX ISR
  37              		.loc 1 20 0
ARM GAS  C:\Users\Andrew\AppData\Local\Temp\ccolTuGu.s 			page 2


  38 0004 FFF7FEFF 		bl	UART_ReadRxData
  39 0008 0346     		mov	r3, r0
  40 000a 1846     		mov	r0, r3
  41 000c FFF7FEFF 		bl	LCD_PutChar
  21:.\main.c      **** }
  42              		.loc 1 21 0
  43 0010 80BD     		pop	{r7, pc}
  44              		.cfi_endproc
  45              	.LFE63:
  46              		.size	RX_INT, .-RX_INT
  47 0012 00BF     		.section	.text.main,"ax",%progbits
  48              		.align	2
  49              		.global	main
  50              		.thumb
  51              		.thumb_func
  52              		.type	main, %function
  53              	main:
  54              	.LFB64:
  22:.\main.c      **** 
  23:.\main.c      **** void main()
  24:.\main.c      **** {	
  55              		.loc 1 24 0
  56              		.cfi_startproc
  57              		@ args = 0, pretend = 0, frame = 0
  58              		@ frame_needed = 1, uses_anonymous_args = 0
  59 0000 80B5     		push	{r7, lr}
  60              		.cfi_def_cfa_offset 8
  61              		.cfi_offset 7, -8
  62              		.cfi_offset 14, -4
  63 0002 00AF     		add	r7, sp, #0
  64              		.cfi_def_cfa_register 7
  25:.\main.c      **** 	LCD_Start();					    // initialize lcd
  65              		.loc 1 25 0
  66 0004 FFF7FEFF 		bl	LCD_Start
  26:.\main.c      **** 	LCD_ClearDisplay();
  67              		.loc 1 26 0
  68 0008 0120     		movs	r0, #1
  69 000a FFF7FEFF 		bl	LCD_WriteControl
  27:.\main.c      ****     
  28:.\main.c      ****     CyGlobalIntEnable;
  70              		.loc 1 28 0
  71              	@ 28 ".\main.c" 1
  72 000e 62B6     		CPSIE   i
  73              	@ 0 "" 2
  29:.\main.c      ****     rx_int_StartEx(RX_INT);             // start RX interrupt (look for CY_ISR with RX_INT address)
  74              		.loc 1 29 0
  75              		.thumb
  76 0010 0348     		ldr	r0, .L4
  77 0012 FFF7FEFF 		bl	rx_int_StartEx
  30:.\main.c      ****                                         // for code that writes received bytes to LCD.
  31:.\main.c      ****     
  32:.\main.c      ****     UART_Start();                       // initialize UART
  78              		.loc 1 32 0
  79 0016 FFF7FEFF 		bl	UART_Start
  33:.\main.c      ****     UART_ClearRxBuffer();
  80              		.loc 1 33 0
  81 001a FFF7FEFF 		bl	UART_ClearRxBuffer
ARM GAS  C:\Users\Andrew\AppData\Local\Temp\ccolTuGu.s 			page 3


  82              	.L3:
  34:.\main.c      **** 
  35:.\main.c      ****     for(;;)
  36:.\main.c      ****     {}
  83              		.loc 1 36 0 discriminator 1
  84 001e FEE7     		b	.L3
  85              	.L5:
  86              		.align	2
  87              	.L4:
  88 0020 00000000 		.word	RX_INT
  89              		.cfi_endproc
  90              	.LFE64:
  91              		.size	main, .-main
  92              		.text
  93              	.Letext0:
  94              		.file 2 "c:\\program files (x86)\\cypress\\psoc creator\\3.3\\psoc creator\\import\\gnu\\arm\\4.9.
  95              		.file 3 "c:\\program files (x86)\\cypress\\psoc creator\\3.3\\psoc creator\\import\\gnu\\arm\\4.9.
  96              		.file 4 "Generated_Source\\PSoC5/core_cm3.h"